
cputest:     file format elf32-zip


Disassembly of section .rocode:

00008000 <_start>:
    8000:	86 00 8e 00 	CLR        R0             | CLR        R1
    8004:	96 00 9e 00 	CLR        R2             | CLR        R3
    8008:	a6 00 ae 00 	CLR        R4             | CLR        R5
    800c:	b6 00 be 00 	CLR        R6             | CLR        R7
    8010:	c6 00 ce 00 	CLR        R8             | CLR        R9
    8014:	d6 00 de 00 	CLR        R10            | CLR        R11
    8018:	66 00 00 00 	CLR        R12
    801c:	6a 00 80 00 	LDI        0x00010000,SP  // 10000 <_top_of_stack>
    8020:	6a 40 00 00 
    8024:	76 00 00 00 	TRAP
    8028:	03 43 c0 02 	LJSR       @0x00009e94    // 9e94 <entry>
    802c:	7c 87 c0 00 
    8030:	00 00 9e 94 

00008034 <busy_failure>:
    8034:	78 83 ff fc 	BUSY

00008038 <run_test>:
    8038:	1e 00 00 00 	CLR        R3
    803c:	03 47 c0 10 	MOV        $64+PC,uR0
    8040:	0b 44 c0 00 	MOV        R3,uR1
    8044:	13 44 c0 00 	MOV        R3,uR2
    8048:	1b 44 c0 00 	MOV        R3,uR3
    804c:	23 44 c0 00 	MOV        R3,uR4
    8050:	2b 44 c0 00 	MOV        R3,uR5
    8054:	33 44 c0 00 	MOV        R3,uR6
    8058:	3b 44 c0 00 	MOV        R3,uR7
    805c:	43 44 c0 00 	MOV        R3,uR8
    8060:	4b 44 c0 00 	MOV        R3,uR9
    8064:	53 44 c0 00 	MOV        R3,uR10
    8068:	5b 44 c0 00 	MOV        R3,uR11
    806c:	63 44 c0 00 	MOV        R3,uR12
    8070:	6b 44 80 00 	MOV        R2,uSP
    8074:	73 44 c0 20 	MOV        $32+R3,uCC
    8078:	7b 44 40 00 	MOV        R1,uPC
    807c:	70 c0 00 20 	RTU

00008080 <test_return>:
    8080:	0b 40 60 00 	MOV        uR1,R1
    8084:	70 43 ff df 	AND        $-33,CC
    8088:	7b 40 00 00 	RTN

0000808c <idle_test>:
    808c:	0e 00 00 00 	CLR        R1
    8090:	03 47 c0 15 	MOV        $84+PC,uR0
    8094:	0b 44 40 00 	MOV        R1,uR1
    8098:	13 44 40 00 	MOV        R1,uR2
    809c:	1b 44 40 00 	MOV        R1,uR3
    80a0:	23 44 40 00 	MOV        R1,uR4
    80a4:	2b 44 40 00 	MOV        R1,uR5
    80a8:	33 44 40 00 	MOV        R1,uR6
    80ac:	3b 44 40 00 	MOV        R1,uR7
    80b0:	43 44 40 00 	MOV        R1,uR8
    80b4:	4b 44 40 00 	MOV        R1,uR9
    80b8:	53 44 40 00 	MOV        R1,uR10
    80bc:	5b 44 40 00 	MOV        R1,uR11
    80c0:	63 44 40 00 	MOV        R1,uR12
    80c4:	6b 44 40 00 	MOV        R1,uSP
    80c8:	73 44 40 20 	MOV        $32+R1,uCC
    80cc:	7b 47 c0 06 	MOV        $24+PC,uPC
    80d0:	70 c0 00 30 	WAIT
    80d4:	0b 43 e0 00 	MOV        uPC,R1
    80d8:	0c 07 c0 03 	CMP        $12+PC,R1
    80dc:	0e 00 00 00 	CLR        R1
    80e0:	0a 68 00 01 	LDILO.NZ   $1,R1
    80e4:	7b 40 00 00 	RTN

000080e8 <idle_loop>:
    80e8:	70 c0 00 30 	WAIT
    80ec:	78 83 ff f8 	BRA        @0x000080e8    // 80e8 <idle_loop>

000080f0 <break_one>:
    80f0:	0e 00 00 00 	CLR        R1
    80f4:	7f 00 00 00 	BREAK      @0x000080f8    // 80f8 <break_one+0x8>
    80f8:	8e 01 ff 80 	LDI        $1,R1          | RTN

000080fc <break_two>:
    80fc:	8e 00 ff 80 	CLR        R1             | RTN
    8100:	7f 00 00 00 	BREAK      @0x00008104    // 8104 <break_three>

00008104 <break_three>:
    8104:	7f 00 00 00 	BREAK      @0x00008108    // 8108 <early_branch_test>

00008108 <early_branch_test>:
    8108:	0e 00 00 01 	LDI        $1,R1
    810c:	78 80 00 04 	BRA        @0x00008114    // 8114 <_eb_a>
    8110:	7f 00 00 00 	BREAK      @0x00008114    // 8114 <_eb_a>

00008114 <_eb_a>:
    8114:	0e 00 00 02 	LDI        $2,R1
    8118:	78 80 00 08 	BRA        @0x00008124    // 8124 <_eb_b>
    811c:	7f c0 00 00 	NOOP
    8120:	7f 00 00 00 	BREAK      @0x00008124    // 8124 <_eb_b>

00008124 <_eb_b>:
    8124:	0e 00 00 03 	LDI        $3,R1
    8128:	78 80 00 0c 	BRA        @0x00008138    // 8138 <_eb_c>
    812c:	7f c0 00 00 	NOOP
    8130:	7f c0 00 00 	NOOP
    8134:	7f 00 00 00 	BREAK      @0x00008138    // 8138 <_eb_c>

00008138 <_eb_c>:
    8138:	0e 00 00 04 	LDI        $4,R1
    813c:	78 80 00 10 	BRA        @0x00008150    // 8150 <_eb_d>
    8140:	7f c0 00 00 	NOOP
    8144:	7f c0 00 00 	NOOP
    8148:	7f c0 00 00 	NOOP
    814c:	7f 00 00 00 	BREAK      @0x00008150    // 8150 <_eb_d>

00008150 <_eb_d>:
    8150:	0e 00 00 05 	LDI        $5,R1
    8154:	78 80 00 14 	BRA        @0x0000816c    // 816c <_eb_e>
    8158:	7f c0 00 00 	NOOP
    815c:	7f c0 00 00 	NOOP
    8160:	7f c0 00 00 	NOOP
    8164:	7f c0 00 00 	NOOP
    8168:	7f 00 00 00 	BREAK      @0x0000816c    // 816c <_eb_e>

0000816c <_eb_e>:
    816c:	0e 00 00 06 	LDI        $6,R1
    8170:	78 80 00 18 	BRA        @0x0000818c    // 818c <_eb_f>
    8174:	7f c0 00 00 	NOOP
    8178:	7f c0 00 00 	NOOP
    817c:	7f c0 00 00 	NOOP
    8180:	7f c0 00 00 	NOOP
    8184:	7f c0 00 00 	NOOP
    8188:	7f 00 00 00 	BREAK      @0x0000818c    // 818c <_eb_f>

0000818c <_eb_f>:
    818c:	8e 00 ff 80 	CLR        R1             | RTN

00008190 <trap_test_and>:
    8190:	8e 00 f1 5f 	CLR        R1             | AND        $-33,CC
    8194:	8e 01 ff 80 	LDI        $1,R1          | RTN

00008198 <trap_test_clr>:
    8198:	8e 00 f6 00 	CLR        R1             | CLR        CC
    819c:	8e 01 ff 80 	LDI        $1,R1          | RTN

000081a0 <overflow_test>:
    81a0:	8e 00 9e 00 	CLR        R1             | CLR        R3
    81a4:	16 7f ff ff 	LDI        $-1,R2
    81a8:	11 40 00 01 	LSR        $1,R2
    81ac:	10 80 00 01 	ADD        $1,R2
    81b0:	18 e0 00 01 	OR.V       $1,R3
    81b4:	12 00 00 01 	BREV       $1,R2
    81b8:	10 00 00 01 	SUB        $1,R2
    81bc:	18 e0 00 02 	OR.V       $2,R3
    81c0:	12 00 00 01 	BREV       $1,R2
    81c4:	11 40 00 01 	LSR        $1,R2
    81c8:	18 e0 00 04 	OR.V       $4,R3
    81cc:	12 00 00 02 	BREV       $2,R2
    81d0:	11 80 00 01 	LSL        $1,R2
    81d4:	18 e0 00 08 	OR.V       $8,R3
    81d8:	12 00 00 01 	BREV       $1,R2
    81dc:	11 80 00 01 	LSL        $1,R2
    81e0:	18 e0 00 10 	OR.V       $16,R3
    81e4:	19 00 00 1f 	XOR        $31,R3
    81e8:	08 c4 c0 00 	OR         R3,R1
    81ec:	7b 40 00 00 	RTN

000081f0 <carry_test>:
    81f0:	8e 00 9e 00 	CLR        R1             | CLR        R3
    81f4:	96 ff 92 01 	LDI        $-1,R2         | ADD        $1,R2
    81f8:	18 d8 00 01 	OR.C       $1,R3
    81fc:	10 00 00 01 	SUB        $1,R2
    8200:	18 d8 00 02 	OR.C       $2,R3
    8204:	16 00 00 01 	LDI        $1,R2
    8208:	11 40 00 01 	LSR        $1,R2
    820c:	18 d8 00 04 	OR.C       $4,R3
    8210:	16 00 00 01 	LDI        $1,R2
    8214:	11 c0 00 01 	ASR        $1,R2
    8218:	18 d8 00 08 	OR.C       $8,R3
    821c:	96 00 93 01 	CLR        R2             | CMP        $1,R2
    8220:	18 d8 00 10 	OR.C       $16,R3
    8224:	19 00 00 1f 	XOR        $31,R3
    8228:	08 c4 c0 00 	OR         R3,R1
    822c:	7b 40 00 00 	RTN

00008230 <loop_test>:
    8230:	8e 00 96 00 	CLR        R1             | CLR        R2
    8234:	9e 00 93 05 	CLR        R3             | CMP        $5,R2
    8238:	78 b0 00 0c 	BGE        @0x00008248    // 8248 <end_for_loop_test>

0000823c <for_loop_test>:
    823c:	92 01 9a 01 	ADD        $1,R2          | ADD        $1,R3
    8240:	14 00 00 05 	CMP        $5,R2
    8244:	78 93 ff f4 	BLT        @0x0000823c    // 823c <for_loop_test>

00008248 <end_for_loop_test>:
    8248:	1c 00 00 05 	CMP        $5,R3
    824c:	08 e8 00 01 	OR.NZ      $1,R1
    8250:	96 00 9e 05 	CLR        R2             | LDI        $5,R3

00008254 <bge_loop_test>:
    8254:	92 01 98 01 	ADD        $1,R2          | SUB        $1,R3
    8258:	78 b3 ff f8 	BGE        @0x00008254    // 8254 <bge_loop_test>
    825c:	14 00 00 06 	CMP        $6,R2
    8260:	08 e8 00 04 	OR.NZ      $4,R1
    8264:	e8 04 96 00 	SUB        $4,SP          | CLR        R2
    8268:	9e 04 9d 00 	LDI        $4,R3          | SW         R3,(SP)

0000826c <mem_loop_test>:
    826c:	92 01 9a 0e 	ADD        $1,R2          | ADD        $14,R3
    8270:	9c 00 98 01 	LW         (SP),R3        | SUB        $1,R3
    8274:	1c c7 40 00 	SW         R3,(SP)
    8278:	78 b3 ff f0 	BGE        @0x0000826c    // 826c <mem_loop_test>
    827c:	14 00 00 05 	CMP        $5,R2
    8280:	08 e8 00 08 	OR.NZ      $8,R1
    8284:	ea 04 ff 80 	ADD        $4,SP          | RTN

00008288 <shift_test>:
    8288:	8e 00 9e 00 	CLR        R1             | CLR        R3
    828c:	a6 00 ae 00 	CLR        R4             | CLR        R5
    8290:	16 7f ff ff 	LDI        $-1,R2
    8294:	11 40 00 20 	LSR        $32,R2
    8298:	18 c8 00 01 	OR.Z       $1,R3
    829c:	18 d8 00 02 	OR.C       $2,R3
    82a0:	14 00 00 00 	CMP        $0,R2
    82a4:	18 c8 00 04 	OR.Z       $4,R3
    82a8:	16 7f ff ff 	LDI        $-1,R2
    82ac:	11 c0 00 20 	ASR        $32,R2
    82b0:	18 d0 00 08 	OR.LT      $8,R3
    82b4:	18 d8 00 10 	OR.C       $16,R3
    82b8:	14 03 ff ff 	CMP        $-1,R2
    82bc:	18 c8 00 20 	OR.Z       $32,R3
    82c0:	16 7f ff fc 	LDI        $-4,R2
    82c4:	11 c0 00 02 	ASR        $2,R2
    82c8:	18 d0 00 40 	OR.LT      $64,R3
    82cc:	08 d8 00 80 	OR.C       $128,R1
    82d0:	18 c0 00 80 	OR         $128,R3
    82d4:	14 03 ff ff 	CMP        $-1,R2
    82d8:	18 c8 01 00 	OR.Z       $256,R3
    82dc:	11 c0 00 01 	ASR        $1,R2
    82e0:	18 d0 02 00 	OR.LT      $512,R3
    82e4:	18 d8 04 00 	OR.C       $1024,R3
    82e8:	14 03 ff ff 	CMP        $-1,R2
    82ec:	18 c8 08 00 	OR.Z       $2048,R3
    82f0:	16 7f ff ff 	LDI        $-1,R2
    82f4:	11 80 00 20 	LSL        $32,R2
    82f8:	18 c8 10 00 	OR.Z       $4096,R3
    82fc:	18 d8 20 00 	OR.C       $8192,R3
    8300:	14 00 00 00 	CMP        $0,R2
    8304:	18 c8 40 00 	OR.Z       $16384,R3
    8308:	16 7f ff ff 	LDI        $-1,R2
    830c:	11 c0 00 00 	ASR        $0,R2
    8310:	08 d8 80 00 	OR.C       $32768,R1
    8314:	18 c0 80 00 	OR         $32768,R3
    8318:	14 03 ff ff 	CMP        $-1,R2
    831c:	20 c8 00 01 	OR.Z       $1,R4
    8320:	11 40 00 00 	LSR        $0,R2
    8324:	2e 02 00 00 	LDI        $131072,R5
    8328:	08 dd 40 00 	OR.C       R5,R1
    832c:	14 03 ff ff 	CMP        $-1,R2
    8330:	20 c8 00 02 	OR.Z       $2,R4
    8334:	11 80 00 00 	LSL        $0,R2
    8338:	2e 08 00 00 	LDI        $524288,R5
    833c:	08 dd 40 00 	OR.C       R5,R1
    8340:	14 03 ff ff 	CMP        $-1,R2
    8344:	20 c8 00 04 	OR.Z       $4,R4
    8348:	21 00 00 07 	XOR        $7,R4
    834c:	19 00 ff ff 	XOR        $65535,R3
    8350:	21 80 00 10 	LSL        $16,R4
    8354:	18 c5 00 00 	OR         R4,R3
    8358:	08 c4 c0 00 	OR         R3,R1
    835c:	7b 40 00 00 	RTN

00008360 <sw_brev>:
    8360:	e8 08 95 00 	SUB        $8,SP          | SW         R2,(SP)
    8364:	9d 04 96 ff 	SW         R3,$4(SP)      | LDI        $-1,R2
    8368:	1e 00 00 00 	CLR        R3

0000836c <sw_brev_loop>:
    836c:	19 80 00 01 	LSL        $1,R3
    8370:	09 40 00 01 	LSR        $1,R1
    8374:	18 d8 00 01 	OR.C       $1,R3
    8378:	11 40 00 01 	LSR        $1,R2
    837c:	78 88 00 04 	BZ         @0x00008384    // 8384 <sw_brev_endloop>
    8380:	78 83 ff e8 	BRA        @0x0000836c    // 836c <sw_brev_loop>

00008384 <sw_brev_endloop>:
    8384:	0b 40 c0 00 	MOV        R3,R1
    8388:	94 00 9c 04 	LW         (SP),R2        | LW         4(SP),R3
    838c:	ea 08 ff 80 	ADD        $8,SP          | RTN

00008390 <pipeline_stack_test>:
    8390:	e8 04 85 00 	SUB        $4,SP          | SW         R0,(SP)
    8394:	86 00 8e 01 	CLR        R0             | LDI        $1,R1
    8398:	96 02 9e 03 	LDI        $2,R2          | LDI        $3,R3
    839c:	a6 04 ae 05 	LDI        $4,R4          | LDI        $5,R5
    83a0:	b6 06 be 07 	LDI        $6,R6          | LDI        $7,R7
    83a4:	43 41 c0 01 	MOV        $1+R7,R8
    83a8:	4b 42 00 01 	MOV        $1+R8,R9
    83ac:	53 42 40 01 	MOV        $1+R9,R10
    83b0:	5b 42 80 01 	MOV        $1+R10,R11
    83b4:	63 42 c0 01 	MOV        $1+R11,R12
    83b8:	03 43 c0 01 	JSR        0x00008400     // 8400 <pipeline_stack_test_component>
    83bc:	78 80 00 40 

000083c0 <pipeline_stack_test_component_return>:
    83c0:	0c 00 00 01 	CMP        $1,R1
    83c4:	0a 08 00 00 	CLR.Z      $0,R1
    83c8:	14 00 00 02 	CMP        $2,R2
    83cc:	1c 08 00 03 	CMP.Z      $3,R3
    83d0:	24 08 00 04 	CMP.Z      $4,R4
    83d4:	2c 08 00 05 	CMP.Z      $5,R5
    83d8:	34 08 00 06 	CMP.Z      $6,R6
    83dc:	3c 08 00 07 	CMP.Z      $7,R7
    83e0:	44 08 00 08 	CMP.Z      $8,R8
    83e4:	4c 08 00 09 	CMP.Z      $9,R9
    83e8:	54 08 00 0a 	CMP.Z      $10,R10
    83ec:	5c 08 00 0b 	CMP.Z      $11,R11
    83f0:	64 08 00 0c 	CMP.Z      $12,R12
    83f4:	0a 2b ff ff 	BREV.NZ    $-1,R1
    83f8:	84 00 ea 04 	LW         (SP),R0        | ADD        $4,SP
    83fc:	7b 40 00 00 	RTN

00008400 <pipeline_stack_test_component>:
    8400:	e8 34 85 00 	SUB        $52,SP         | SW         R0,(SP)
    8404:	8d 04 95 08 	SW         R1,$4(SP)      | SW         R2,$8(SP)
    8408:	9d 0c a5 10 	SW         R3,$12(SP)     | SW         R4,$16(SP)
    840c:	ad 14 b5 18 	SW         R5,$20(SP)     | SW         R6,$24(SP)
    8410:	bd 1c c5 20 	SW         R7,$28(SP)     | SW         R8,$32(SP)
    8414:	cd 24 d5 28 	SW         R9,$36(SP)     | SW         R10,$40(SP)
    8418:	dd 2c e5 30 	SW         R11,$44(SP)    | SW         R12,$48(SP)
    841c:	01 03 ff ff 	XOR        $-1,R0
    8420:	09 03 ff ff 	XOR        $-1,R1
    8424:	11 03 ff ff 	XOR        $-1,R2
    8428:	19 03 ff ff 	XOR        $-1,R3
    842c:	21 03 ff ff 	XOR        $-1,R4
    8430:	29 03 ff ff 	XOR        $-1,R5
    8434:	31 03 ff ff 	XOR        $-1,R6
    8438:	39 03 ff ff 	XOR        $-1,R7
    843c:	41 03 ff ff 	XOR        $-1,R8
    8440:	49 03 ff ff 	XOR        $-1,R9
    8444:	51 03 ff ff 	XOR        $-1,R10
    8448:	59 03 ff ff 	XOR        $-1,R11
    844c:	61 03 ff ff 	XOR        $-1,R12
    8450:	84 00 8c 04 	LW         (SP),R0        | LW         4(SP),R1
    8454:	94 08 9c 0c 	LW         8(SP),R2       | LW         12(SP),R3
    8458:	a4 10 ac 14 	LW         16(SP),R4      | LW         20(SP),R5
    845c:	b4 18 bc 1c 	LW         24(SP),R6      | LW         28(SP),R7
    8460:	c4 20 cc 24 	LW         32(SP),R8      | LW         36(SP),R9
    8464:	d4 28 dc 2c 	LW         40(SP),R10     | LW         44(SP),R11
    8468:	e4 30 ea 34 	LW         48(SP),R12     | ADD        $52,SP
    846c:	7b 40 00 00 	RTN

00008470 <mpy_test>:
    8470:	0e 00 00 00 	CLR        R1
    8474:	16 00 00 89 	LDI        $137,R2
    8478:	9e 00 a6 00 	CLR        R3             | CLR        R4

0000847c <mpy_137_test_loop>:
    847c:	2b 40 80 00 	MOV        R2,R5
    8480:	2b 05 00 00 	MPY        R4,R5
    8484:	2c 04 c0 00 	CMP        R3,R5
    8488:	78 a8 00 34 	BNZ        @0x000084c0    // 84c0 <end_mpy_137_test_loop_failed>
    848c:	33 40 80 00 	MOV        R2,R6
    8490:	33 41 9f ff 	MOV        $-1+R6,R6
    8494:	31 03 ff ff 	XOR        $-1,R6
    8498:	33 05 00 00 	MPY        R4,R6
    849c:	33 41 9f ff 	MOV        $-1+R6,R6
    84a0:	31 03 ff ff 	XOR        $-1,R6
    84a4:	34 04 c0 00 	CMP        R3,R6
    84a8:	78 a8 00 14 	BNZ        @0x000084c0    // 84c0 <end_mpy_137_test_loop_failed>
    84ac:	36 00 00 00 	CLR        R6
    84b0:	1c 43 00 00 	TST        $-65536,R3
    84b4:	78 a8 00 0c 	BNZ        @0x000084c4    // 84c4 <end_mpy_137_test_loop>
    84b8:	9a 90 a2 01 	ADD        R2,R3          | ADD        $1,R4
    84bc:	78 83 ff bc 	BRA        @0x0000847c    // 847c <mpy_137_test_loop>

000084c0 <end_mpy_137_test_loop_failed>:
    84c0:	08 c0 00 01 	OR         $1,R1

000084c4 <end_mpy_137_test_loop>:
    84c4:	7b 40 00 00 	RTN

000084c8 <hard_mpyuhi>:
    84c8:	0a 84 80 00 	MPYUHI     R2,R1
    84cc:	7b 40 00 00 	RTN

000084d0 <hard_mpyshi>:
    84d0:	0a c4 80 00 	MPYSHI     R2,R1
    84d4:	7b 40 00 00 	RTN

000084d8 <div_test>:
    84d8:	22 01 12 00 	LDI        0x004881a7,R4  // 4881a7 <_top_of_stack+0x4781a7>
    84dc:	22 40 81 a7 
    84e0:	12 00 ab 40 	LDI        0x02d5108b,R2  // 2d5108b <_top_of_stack+0x2d4108b>
    84e4:	12 40 10 8b 
    84e8:	1e 00 00 0a 	LDI        $10,R3
    84ec:	13 84 c0 00 	DIVU       R3,R2
    84f0:	14 05 00 00 	CMP        R4,R2
    84f4:	0a 68 00 01 	LDILO.NZ   $1,R1
    84f8:	7b 68 00 00 	RTN.NZ
    84fc:	12 00 ab 40 	LDI        0x02d5108b,R2  // 2d5108b <_top_of_stack+0x2d4108b>
    8500:	12 40 10 8b 
    8504:	13 80 00 0a 	DIVU       $10,R2
    8508:	14 05 00 00 	CMP        R4,R2
    850c:	0a 68 00 01 	LDILO.NZ   $1,R1
    8510:	7b 40 00 00 	RTN

00008514 <pipeline_test>:
    8514:	68 00 00 0c 	SUB        $12,SP
    8518:	16 00 01 13 	LDI        $275,R2
    851c:	14 c7 40 04 	SW         R2,$4(SP)
    8520:	13 43 40 04 	MOV        $4+SP,R2
    8524:	95 00 96 00 	SW         R2,(SP)        | CLR        R2
    8528:	13 43 40 00 	MOV        SP,R2
    852c:	94 90 94 90 	LW         (R2),R2        | LW         (R2),R2
    8530:	14 00 01 13 	CMP        $275,R2
    8534:	08 e8 00 01 	OR.NZ      $1,R1
    8538:	13 43 40 00 	MOV        SP,R2
    853c:	1c 84 80 00 	LW         (R2),R3
    8540:	24 84 80 04 	LW         4(R2),R4
    8544:	24 c4 c0 04 	SW         R4,$4(R3)
    8548:	1c 84 80 00 	LW         (R2),R3
    854c:	24 84 80 08 	LW         8(R2),R4
    8550:	24 00 01 13 	CMP        $275,R4
    8554:	08 e8 00 02 	OR.NZ      $2,R1
    8558:	13 43 40 00 	MOV        SP,R2
    855c:	1b 40 80 04 	MOV        $4+R2,R3
    8560:	1c c4 80 04 	SW         R3,$4(R2)
    8564:	26 00 0e 04 	LDI        $3588,R4
    8568:	24 c4 80 08 	SW         R4,$8(R2)
    856c:	9f 90 9c 90 	MOV        R2,R3          | LW         (R2),R3
    8570:	1c 84 c0 04 	LW         4(R3),R3
    8574:	1c 05 00 00 	CMP        R4,R3
    8578:	08 e8 00 04 	OR.NZ      $4,R1
    857c:	ea 0c ff 80 	ADD        $12,SP         | RTN

00008580 <mempipe_test>:
    8580:	e8 10 85 00 	SUB        $16,SP         | SW         R0,(SP)
    8584:	5e 00 10 00 	LDI        $4096,R11
    8588:	96 ff 9e 00 	LDI        $-1,R2         | CLR        R3
    858c:	95 08 9c 08 	SW         R2,$8(SP)      | LW         8(SP),R3
    8590:	14 04 c0 00 	CMP        R3,R2
    8594:	08 e8 00 01 	OR.NZ      $1,R1
    8598:	7f c0 00 00 	NOOP
    859c:	7f c0 00 00 	NOOP
    85a0:	96 00 9e 00 	CLR        R2             | CLR        R3
    85a4:	94 08 95 0c 	LW         8(SP),R2       | SW         R2,$12(SP)
    85a8:	14 87 40 08 	LW         8(SP),R2
    85ac:	7f c0 00 00 	NOOP
    85b0:	7f c0 00 00 	NOOP
    85b4:	7f c0 00 00 	NOOP
    85b8:	7f c0 00 00 	NOOP
    85bc:	9c 0c 93 98 	LW         12(SP),R3      | CMP        R3,R2
    85c0:	08 e8 00 02 	OR.NZ      $2,R1
    85c4:	84 00 ea 10 	LW         (SP),R0        | ADD        $16,SP
    85c8:	7b 40 00 00 	RTN

000085cc <cexec_test>:
    85cc:	e8 04 85 00 	SUB        $4,SP          | SW         R0,(SP)
    85d0:	11 04 80 00 	XOR        R2,R2
    85d4:	10 88 00 01 	ADD.Z      $1,R2
    85d8:	08 a8 00 01 	ADD.NZ     $1,R1
    85dc:	14 08 00 00 	CMP.Z      $0,R2
    85e0:	08 c8 00 02 	OR.Z       $2,R1
    85e4:	84 00 ea 04 	LW         (SP),R0        | ADD        $4,SP
    85e8:	7b 40 00 00 	RTN

000085ec <nowaitpipe_test>:
    85ec:	e8 08 96 ff 	SUB        $8,SP          | LDI        $-1,R2
    85f0:	96 00 92 01 	CLR        R2             | ADD        $1,R2
    85f4:	14 00 00 01 	CMP        $1,R2
    85f8:	08 e8 00 01 	OR.NZ      $1,R1
    85fc:	96 00 9e 00 	CLR        R2             | CLR        R3
    8600:	92 01 9b 90 	ADD        $1,R2          | CMP        R2,R3
    8604:	08 c8 00 02 	OR.Z       $2,R1
    8608:	11 04 80 00 	XOR        R2,R2
    860c:	10 88 00 05 	ADD.Z      $5,R2
    8610:	14 00 00 05 	CMP        $5,R2
    8614:	08 e8 00 04 	OR.NZ      $4,R1
    8618:	16 00 00 00 	CLR        R2
    861c:	19 04 c0 00 	XOR        R3,R3
    8620:	10 88 00 05 	ADD.Z      $5,R2
    8624:	1c 04 80 00 	CMP        R2,R3
    8628:	08 c8 00 08 	OR.Z       $8,R1
    862c:	16 00 00 00 	CLR        R2
    8630:	19 04 c0 00 	XOR        R3,R3
    8634:	10 80 00 05 	ADD        $5,R2
    8638:	1c 04 bf fb 	CMP        $-5+R2,R3
    863c:	08 e8 00 10 	OR.NZ      $16,R1
    8640:	16 00 00 00 	CLR        R2
    8644:	19 04 c0 00 	XOR        R3,R3
    8648:	10 88 00 05 	ADD.Z      $5,R2
    864c:	1c 04 bf fb 	CMP        $-5+R2,R3
    8650:	08 e8 00 20 	OR.NZ      $32,R1
    8654:	96 00 95 04 	CLR        R2             | SW         R2,$4(SP)
    8658:	16 00 20 a0 	LDI        $8352,R2
    865c:	14 87 40 04 	LW         4(SP),R2
    8660:	14 43 ff ff 	TST        $-1,R2
    8664:	08 e8 00 40 	OR.NZ      $64,R1
    8668:	16 00 03 a9 	LDI        $937,R2
    866c:	14 c7 40 04 	SW         R2,$4(SP)
    8670:	7f c0 00 00 	NOOP
    8674:	14 87 40 04 	LW         4(SP),R2
    8678:	14 00 03 aa 	CMP        $938,R2
    867c:	08 f0 00 80 	OR.GE      $128,R1
    8680:	14 00 03 a8 	CMP        $936,R2
    8684:	08 d0 01 00 	OR.LT      $256,R1
    8688:	16 00 14 d0 	LDI        $5328,R2
    868c:	94 04 95 04 	LW         4(SP),R2       | SW         R2,$4(SP)
    8690:	1c 87 40 04 	LW         4(SP),R3
    8694:	1c 00 03 a9 	CMP        $937,R3
    8698:	08 e8 02 00 	OR.NZ      $512,R1
    869c:	ea 08 ff 80 	ADD        $8,SP          | RTN

000086a0 <bcmem_test>:
    86a0:	e8 04 8e 00 	SUB        $4,SP          | CLR        R1
    86a4:	96 00 9e ff 	CLR        R2             | LDI        $-1,R3
    86a8:	26 01 30 00 	LDI        $77824,R4
    86ac:	95 00 9c 00 	SW         R2,(SP)        | LW         (SP),R3
    86b0:	1c 04 80 00 	CMP        R2,R3
    86b4:	08 e8 00 01 	OR.NZ      $1,R1
    86b8:	24 01 30 00 	CMP        $77824,R4
    86bc:	78 88 00 04 	BZ         @0x000086c4    // 86c4 <bcmem_test_cmploc_1>
    86c0:	24 c7 40 00 	SW         R4,(SP)

000086c4 <bcmem_test_cmploc_1>:
    86c4:	94 00 a3 90 	LW         (SP),R2        | CMP        R2,R4
    86c8:	08 c8 00 02 	OR.Z       $2,R1
    86cc:	96 00 a3 90 	CLR        R2             | CMP        R2,R4
    86d0:	78 88 00 04 	BZ         @0x000086d8    // 86d8 <bcmem_test_cmploc_2>
    86d4:	24 ef 40 00 	SW.NZ      R4,(SP)

000086d8 <bcmem_test_cmploc_2>:
    86d8:	94 00 a3 90 	LW         (SP),R2        | CMP        R2,R4
    86dc:	08 e8 00 04 	OR.NZ      $4,R1
    86e0:	ea 04 ff 80 	ADD        $4,SP          | RTN

000086e4 <ill_test>:
    86e4:	7e c0 00 00 	ILL 7ec00000
    86e8:	7b 40 00 00 	RTN

000086ec <sim_test>:
    86ec:	7f 80 00 00 	SIM
    86f0:	7b 40 00 00 	RTN

000086f4 <cis_test>:
    86f4:	83 d0 8b e0 	CMP        R10,R0         | CMP        R12,R1
    86f8:	7b 40 00 00 	RTN

000086fc <cmpeq_test>:
    86fc:	14 04 40 00 	CMP        R1,R2
    8700:	24 0c c0 00 	CMP.Z      R3,R4
    8704:	0a 68 00 01 	LDILO.NZ   $1,R1
    8708:	7b 40 00 00 	RTN

0000870c <cmpneq_test>:
    870c:	a6 01 93 88 	LDI        $1,R4          | CMP        R1,R2
    8710:	24 0c c0 00 	CMP.Z      R3,R4
    8714:	02 48 00 01 	LDILO.Z    $1,R0
    8718:	7b 40 00 00 	RTN

0000871c <ccreg_test>:
    871c:	8e 00 97 f0 	CLR        R1             | MOV        CC,R2
    8720:	23 40 80 00 	MOV        R2,R4
    8724:	1a 00 00 ff 	BREV       $255,R3
    8728:	11 04 c0 00 	XOR        R3,R2
    872c:	73 40 80 00 	MOV        R2,CC
    8730:	2b 43 80 00 	MOV        CC,R5
    8734:	29 05 00 00 	XOR        R4,R5
    8738:	08 e8 00 01 	OR.NZ      $1,R1
    873c:	33 43 80 00 	MOV        CC,R6
    8740:	30 c0 00 0f 	OR         $15,R6
    8744:	73 41 80 00 	MOV        R6,CC
    8748:	bf f0 b9 0f 	MOV        CC,R7          | AND        $15,R7
    874c:	3c 00 00 0f 	CMP        $15,R7
    8750:	08 e8 00 02 	OR.NZ      $2,R1
    8754:	41 06 00 01 	XOR        $1+R8,R8
    8758:	70 c0 00 01 	OR         $1,CC
    875c:	08 e8 00 04 	OR.NZ      $4,R1
    8760:	7b 40 00 00 	RTN

00008764 <idle_task>:
    8764:	70 c0 00 30 	WAIT
    8768:	78 83 ff f8 	BRA        @0x00008764    // 8764 <idle_task>

0000876c <soft_mpyuhi>:
    876c:	e8 20 ad 00 	SUB        $32,SP         | SW         R5,(SP)
    8770:	b5 04 bd 08 	SW         R6,$4(SP)      | SW         R7,$8(SP)
    8774:	c5 0c cd 10 	SW         R8,$12(SP)     | SW         R9,$16(SP)
    8778:	d5 14 dd 18 	SW         R10,$20(SP)    | SW         R11,$24(SP)
    877c:	64 c7 40 1c 	SW         R12,$28(SP)
    8780:	53 40 40 00 	MOV        R1,R10
    8784:	50 40 ff ff 	AND        $65535,R10
    8788:	5b 40 40 00 	MOV        R1,R11
    878c:	59 40 00 10 	LSR        $16,R11
    8790:	8e 00 ce 00 	CLR        R1             | CLR        R9
    8794:	be 00 c6 00 	CLR        R7             | CLR        R8
    8798:	2e 00 00 01 	LDI        $1,R5
    879c:	29 84 40 00 	LSL        R1,R5
    87a0:	a9 90 a7 d0 	AND        R2,R5          | MOV        R10,R4
    87a4:	21 84 40 00 	LSL        R1,R4
    87a8:	33 42 c0 00 	MOV        R11,R6
    87ac:	31 84 40 00 	LSL        R1,R6
    87b0:	1b 41 00 00 	MOV        R4,R3
    87b4:	19 40 00 10 	LSR        $16,R3
    87b8:	18 c5 80 00 	OR         R6,R3
    87bc:	33 40 c0 00 	MOV        R3,R6
    87c0:	31 40 00 10 	LSR        $16,R6
    87c4:	30 86 00 00 	ADD        R8,R6
    87c8:	20 40 ff ff 	AND        $65535,R4
    87cc:	20 86 40 00 	ADD        R9,R4
    87d0:	18 40 ff ff 	AND        $65535,R3
    87d4:	63 41 00 00 	MOV        R4,R12
    87d8:	61 40 00 10 	LSR        $16,R12
    87dc:	9a e0 9a b8 	ADD        R12,R3         | ADD        R7,R3
    87e0:	20 40 ff ff 	AND        $65535,R4
    87e4:	63 40 c0 00 	MOV        R3,R12
    87e8:	61 40 00 10 	LSR        $16,R12
    87ec:	60 85 80 00 	ADD        R6,R12
    87f0:	18 40 ff ff 	AND        $65535,R3
    87f4:	b7 c0 ab 00 	MOV        R8,R6          | CMP        $0,R5
    87f8:	33 6b 00 00 	MOV.NZ     R12,R6
    87fc:	43 41 80 00 	MOV        R6,R8
    8800:	63 41 c0 00 	MOV        R7,R12
    8804:	63 68 c0 00 	MOV.NZ     R3,R12
    8808:	3b 43 00 00 	MOV        R12,R7
    880c:	4b 69 00 00 	MOV.NZ     R4,R9
    8810:	8a 01 8b 10 	ADD        $1,R1          | CMP        $16,R1
    8814:	78 ab ff 80 	BNZ        @0x00008798    // 8798 <soft_mpyuhi+0x2c>
    8818:	1b 40 80 00 	MOV        R2,R3
    881c:	18 41 00 00 	AND        $65536,R3
    8820:	c2 d8 ba d0 	ADD        R11,R8         | ADD        R10,R7
    8824:	0b 41 c0 00 	MOV        R7,R1
    8828:	09 40 00 10 	LSR        $16,R1
    882c:	8a c0 9b 00 	ADD        R8,R1          | CMP        $0,R3
    8830:	0b 49 80 00 	MOV.Z      R6,R1
    8834:	38 40 ff ff 	AND        $65535,R7
    8838:	1c 00 00 00 	CMP        $0,R3
    883c:	3b 4b 00 00 	MOV.Z      R12,R7
    8840:	1e 02 00 00 	LDI        $131072,R3
    8844:	b7 90 b1 98 	MOV        R2,R6          | AND        R3,R6
    8848:	9f d0 9a d0 	MOV        R10,R3         | ADD        R10,R3
    884c:	2b 42 c0 00 	MOV        R11,R5
    8850:	28 86 c0 00 	ADD        R11,R5
    8854:	23 40 c0 00 	MOV        R3,R4
    8858:	21 40 00 10 	LSR        $16,R4
    885c:	20 c5 40 00 	OR         R5,R4
    8860:	20 84 40 00 	ADD        R1,R4
    8864:	18 40 ff ff 	AND        $65535,R3
    8868:	18 85 c0 00 	ADD        R7,R3
    886c:	2b 40 c0 00 	MOV        R3,R5
    8870:	29 40 00 10 	LSR        $16,R5
    8874:	aa a0 b3 00 	ADD        R4,R5          | CMP        $0,R6
    8878:	2b 48 40 00 	MOV.Z      R1,R5
    887c:	18 40 ff ff 	AND        $65535,R3
    8880:	34 00 00 00 	CMP        $0,R6
    8884:	1b 49 c0 00 	MOV.Z      R7,R3
    8888:	0e 04 00 00 	LDI        $262144,R1
    888c:	bf 90 b9 88 	MOV        R2,R7          | AND        R1,R7
    8890:	0b 42 80 00 	MOV        R10,R1
    8894:	09 80 00 02 	LSL        $2,R1
    8898:	23 42 c0 00 	MOV        R11,R4
    889c:	21 80 00 02 	LSL        $2,R4
    88a0:	33 40 40 00 	MOV        R1,R6
    88a4:	31 40 00 10 	LSR        $16,R6
    88a8:	30 c5 00 00 	OR         R4,R6
    88ac:	30 85 40 00 	ADD        R5,R6
    88b0:	08 40 ff ff 	AND        $65535,R1
    88b4:	08 84 c0 00 	ADD        R3,R1
    88b8:	23 40 40 00 	MOV        R1,R4
    88bc:	21 40 00 10 	LSR        $16,R4
    88c0:	a2 b0 bb 00 	ADD        R6,R4          | CMP        $0,R7
    88c4:	23 49 40 00 	MOV.Z      R5,R4
    88c8:	08 40 ff ff 	AND        $65535,R1
    88cc:	3c 00 00 00 	CMP        $0,R7
    88d0:	0b 48 c0 00 	MOV.Z      R3,R1
    88d4:	1e 08 00 00 	LDI        $524288,R3
    88d8:	bf 90 b9 98 	MOV        R2,R7          | AND        R3,R7
    88dc:	1b 42 80 00 	MOV        R10,R3
    88e0:	19 80 00 03 	LSL        $3,R3
    88e4:	2b 42 c0 00 	MOV        R11,R5
    88e8:	29 80 00 03 	LSL        $3,R5
    88ec:	33 40 c0 00 	MOV        R3,R6
    88f0:	31 40 00 10 	LSR        $16,R6
    88f4:	30 c5 40 00 	OR         R5,R6
    88f8:	30 85 00 00 	ADD        R4,R6
    88fc:	18 40 ff ff 	AND        $65535,R3
    8900:	18 84 40 00 	ADD        R1,R3
    8904:	2b 40 c0 00 	MOV        R3,R5
    8908:	29 40 00 10 	LSR        $16,R5
    890c:	aa b0 bb 00 	ADD        R6,R5          | CMP        $0,R7
    8910:	2b 49 00 00 	MOV.Z      R4,R5
    8914:	18 40 ff ff 	AND        $65535,R3
    8918:	3c 00 00 00 	CMP        $0,R7
    891c:	1b 48 40 00 	MOV.Z      R1,R3
    8920:	0e 10 00 00 	LDI        $1048576,R1
    8924:	bf 90 b9 88 	MOV        R2,R7          | AND        R1,R7
    8928:	0b 42 80 00 	MOV        R10,R1
    892c:	09 80 00 04 	LSL        $4,R1
    8930:	23 42 c0 00 	MOV        R11,R4
    8934:	21 80 00 04 	LSL        $4,R4
    8938:	33 40 40 00 	MOV        R1,R6
    893c:	31 40 00 10 	LSR        $16,R6
    8940:	30 c5 00 00 	OR         R4,R6
    8944:	30 85 40 00 	ADD        R5,R6
    8948:	08 40 ff ff 	AND        $65535,R1
    894c:	08 84 c0 00 	ADD        R3,R1
    8950:	23 40 40 00 	MOV        R1,R4
    8954:	21 40 00 10 	LSR        $16,R4
    8958:	a2 b0 bb 00 	ADD        R6,R4          | CMP        $0,R7
    895c:	23 49 40 00 	MOV.Z      R5,R4
    8960:	08 40 ff ff 	AND        $65535,R1
    8964:	3c 00 00 00 	CMP        $0,R7
    8968:	0b 48 c0 00 	MOV.Z      R3,R1
    896c:	1e 20 00 00 	LDI        $2097152,R3
    8970:	bf 90 b9 98 	MOV        R2,R7          | AND        R3,R7
    8974:	1b 42 80 00 	MOV        R10,R3
    8978:	19 80 00 05 	LSL        $5,R3
    897c:	2b 42 c0 00 	MOV        R11,R5
    8980:	29 80 00 05 	LSL        $5,R5
    8984:	33 40 c0 00 	MOV        R3,R6
    8988:	31 40 00 10 	LSR        $16,R6
    898c:	30 c5 40 00 	OR         R5,R6
    8990:	30 85 00 00 	ADD        R4,R6
    8994:	18 40 ff ff 	AND        $65535,R3
    8998:	18 84 40 00 	ADD        R1,R3
    899c:	2b 40 c0 00 	MOV        R3,R5
    89a0:	29 40 00 10 	LSR        $16,R5
    89a4:	aa b0 bb 00 	ADD        R6,R5          | CMP        $0,R7
    89a8:	2b 49 00 00 	MOV.Z      R4,R5
    89ac:	18 40 ff ff 	AND        $65535,R3
    89b0:	3c 00 00 00 	CMP        $0,R7
    89b4:	1b 48 40 00 	MOV.Z      R1,R3
    89b8:	0a 00 02 00 	BREV       $512,R1
    89bc:	bf 90 b9 88 	MOV        R2,R7          | AND        R1,R7
    89c0:	0b 42 80 00 	MOV        R10,R1
    89c4:	09 80 00 06 	LSL        $6,R1
    89c8:	23 42 c0 00 	MOV        R11,R4
    89cc:	21 80 00 06 	LSL        $6,R4
    89d0:	33 40 40 00 	MOV        R1,R6
    89d4:	31 40 00 10 	LSR        $16,R6
    89d8:	30 c5 00 00 	OR         R4,R6
    89dc:	30 85 40 00 	ADD        R5,R6
    89e0:	08 40 ff ff 	AND        $65535,R1
    89e4:	08 84 c0 00 	ADD        R3,R1
    89e8:	23 40 40 00 	MOV        R1,R4
    89ec:	21 40 00 10 	LSR        $16,R4
    89f0:	a2 b0 bb 00 	ADD        R6,R4          | CMP        $0,R7
    89f4:	23 49 40 00 	MOV.Z      R5,R4
    89f8:	08 40 ff ff 	AND        $65535,R1
    89fc:	3c 00 00 00 	CMP        $0,R7
    8a00:	0b 48 c0 00 	MOV.Z      R3,R1
    8a04:	1a 00 01 00 	BREV       $256,R3
    8a08:	bf 90 b9 98 	MOV        R2,R7          | AND        R3,R7
    8a0c:	1b 42 80 00 	MOV        R10,R3
    8a10:	19 80 00 07 	LSL        $7,R3
    8a14:	2b 42 c0 00 	MOV        R11,R5
    8a18:	29 80 00 07 	LSL        $7,R5
    8a1c:	33 40 c0 00 	MOV        R3,R6
    8a20:	31 40 00 10 	LSR        $16,R6
    8a24:	30 c5 40 00 	OR         R5,R6
    8a28:	30 85 00 00 	ADD        R4,R6
    8a2c:	18 40 ff ff 	AND        $65535,R3
    8a30:	18 84 40 00 	ADD        R1,R3
    8a34:	2b 40 c0 00 	MOV        R3,R5
    8a38:	29 40 00 10 	LSR        $16,R5
    8a3c:	aa b0 bb 00 	ADD        R6,R5          | CMP        $0,R7
    8a40:	2b 49 00 00 	MOV.Z      R4,R5
    8a44:	18 40 ff ff 	AND        $65535,R3
    8a48:	3c 00 00 00 	CMP        $0,R7
    8a4c:	1b 48 40 00 	MOV.Z      R1,R3
    8a50:	0a 00 00 80 	BREV       $128,R1
    8a54:	bf 90 b9 88 	MOV        R2,R7          | AND        R1,R7
    8a58:	0b 42 80 00 	MOV        R10,R1
    8a5c:	09 80 00 08 	LSL        $8,R1
    8a60:	23 42 c0 00 	MOV        R11,R4
    8a64:	21 80 00 08 	LSL        $8,R4
    8a68:	33 40 40 00 	MOV        R1,R6
    8a6c:	31 40 00 10 	LSR        $16,R6
    8a70:	30 c5 00 00 	OR         R4,R6
    8a74:	30 85 40 00 	ADD        R5,R6
    8a78:	08 40 ff ff 	AND        $65535,R1
    8a7c:	08 84 c0 00 	ADD        R3,R1
    8a80:	23 40 40 00 	MOV        R1,R4
    8a84:	21 40 00 10 	LSR        $16,R4
    8a88:	a2 b0 bb 00 	ADD        R6,R4          | CMP        $0,R7
    8a8c:	23 49 40 00 	MOV.Z      R5,R4
    8a90:	08 40 ff ff 	AND        $65535,R1
    8a94:	3c 00 00 00 	CMP        $0,R7
    8a98:	0b 48 c0 00 	MOV.Z      R3,R1
    8a9c:	1a 00 00 40 	BREV       $64,R3
    8aa0:	bf 90 b9 98 	MOV        R2,R7          | AND        R3,R7
    8aa4:	1b 42 80 00 	MOV        R10,R3
    8aa8:	19 80 00 09 	LSL        $9,R3
    8aac:	2b 42 c0 00 	MOV        R11,R5
    8ab0:	29 80 00 09 	LSL        $9,R5
    8ab4:	33 40 c0 00 	MOV        R3,R6
    8ab8:	31 40 00 10 	LSR        $16,R6
    8abc:	30 c5 40 00 	OR         R5,R6
    8ac0:	30 85 00 00 	ADD        R4,R6
    8ac4:	18 40 ff ff 	AND        $65535,R3
    8ac8:	18 84 40 00 	ADD        R1,R3
    8acc:	2b 40 c0 00 	MOV        R3,R5
    8ad0:	29 40 00 10 	LSR        $16,R5
    8ad4:	aa b0 bb 00 	ADD        R6,R5          | CMP        $0,R7
    8ad8:	2b 49 00 00 	MOV.Z      R4,R5
    8adc:	18 40 ff ff 	AND        $65535,R3
    8ae0:	3c 00 00 00 	CMP        $0,R7
    8ae4:	1b 48 40 00 	MOV.Z      R1,R3
    8ae8:	0a 00 00 20 	BREV       $32,R1
    8aec:	bf 90 b9 88 	MOV        R2,R7          | AND        R1,R7
    8af0:	0b 42 80 00 	MOV        R10,R1
    8af4:	09 80 00 0a 	LSL        $10,R1
    8af8:	23 42 c0 00 	MOV        R11,R4
    8afc:	21 80 00 0a 	LSL        $10,R4
    8b00:	33 40 40 00 	MOV        R1,R6
    8b04:	31 40 00 10 	LSR        $16,R6
    8b08:	30 c5 00 00 	OR         R4,R6
    8b0c:	30 85 40 00 	ADD        R5,R6
    8b10:	08 40 ff ff 	AND        $65535,R1
    8b14:	08 84 c0 00 	ADD        R3,R1
    8b18:	23 40 40 00 	MOV        R1,R4
    8b1c:	21 40 00 10 	LSR        $16,R4
    8b20:	a2 b0 bb 00 	ADD        R6,R4          | CMP        $0,R7
    8b24:	23 49 40 00 	MOV.Z      R5,R4
    8b28:	08 40 ff ff 	AND        $65535,R1
    8b2c:	3c 00 00 00 	CMP        $0,R7
    8b30:	0b 48 c0 00 	MOV.Z      R3,R1
    8b34:	1a 00 00 10 	BREV       $16,R3
    8b38:	bf 90 b9 98 	MOV        R2,R7          | AND        R3,R7
    8b3c:	1b 42 80 00 	MOV        R10,R3
    8b40:	19 80 00 0b 	LSL        $11,R3
    8b44:	2b 42 c0 00 	MOV        R11,R5
    8b48:	29 80 00 0b 	LSL        $11,R5
    8b4c:	33 40 c0 00 	MOV        R3,R6
    8b50:	31 40 00 10 	LSR        $16,R6
    8b54:	30 c5 40 00 	OR         R5,R6
    8b58:	30 85 00 00 	ADD        R4,R6
    8b5c:	18 40 ff ff 	AND        $65535,R3
    8b60:	18 84 40 00 	ADD        R1,R3
    8b64:	2b 40 c0 00 	MOV        R3,R5
    8b68:	29 40 00 10 	LSR        $16,R5
    8b6c:	aa b0 bb 00 	ADD        R6,R5          | CMP        $0,R7
    8b70:	2b 49 00 00 	MOV.Z      R4,R5
    8b74:	18 40 ff ff 	AND        $65535,R3
    8b78:	3c 00 00 00 	CMP        $0,R7
    8b7c:	1b 48 40 00 	MOV.Z      R1,R3
    8b80:	0a 00 00 08 	BREV       $8,R1
    8b84:	bf 90 b9 88 	MOV        R2,R7          | AND        R1,R7
    8b88:	0b 42 80 00 	MOV        R10,R1
    8b8c:	09 80 00 0c 	LSL        $12,R1
    8b90:	23 42 c0 00 	MOV        R11,R4
    8b94:	21 80 00 0c 	LSL        $12,R4
    8b98:	33 40 40 00 	MOV        R1,R6
    8b9c:	31 40 00 10 	LSR        $16,R6
    8ba0:	30 c5 00 00 	OR         R4,R6
    8ba4:	30 85 40 00 	ADD        R5,R6
    8ba8:	08 40 ff ff 	AND        $65535,R1
    8bac:	08 84 c0 00 	ADD        R3,R1
    8bb0:	23 40 40 00 	MOV        R1,R4
    8bb4:	21 40 00 10 	LSR        $16,R4
    8bb8:	a2 b0 bb 00 	ADD        R6,R4          | CMP        $0,R7
    8bbc:	23 49 40 00 	MOV.Z      R5,R4
    8bc0:	08 40 ff ff 	AND        $65535,R1
    8bc4:	3c 00 00 00 	CMP        $0,R7
    8bc8:	0b 48 c0 00 	MOV.Z      R3,R1
    8bcc:	1a 00 00 04 	BREV       $4,R3
    8bd0:	bf 90 b9 98 	MOV        R2,R7          | AND        R3,R7
    8bd4:	1b 42 80 00 	MOV        R10,R3
    8bd8:	19 80 00 0d 	LSL        $13,R3
    8bdc:	2b 42 c0 00 	MOV        R11,R5
    8be0:	29 80 00 0d 	LSL        $13,R5
    8be4:	33 40 c0 00 	MOV        R3,R6
    8be8:	31 40 00 10 	LSR        $16,R6
    8bec:	30 c5 40 00 	OR         R5,R6
    8bf0:	30 85 00 00 	ADD        R4,R6
    8bf4:	18 40 ff ff 	AND        $65535,R3
    8bf8:	18 84 40 00 	ADD        R1,R3
    8bfc:	2b 40 c0 00 	MOV        R3,R5
    8c00:	29 40 00 10 	LSR        $16,R5
    8c04:	aa b0 bb 00 	ADD        R6,R5          | CMP        $0,R7
    8c08:	2b 49 00 00 	MOV.Z      R4,R5
    8c0c:	18 40 ff ff 	AND        $65535,R3
    8c10:	3c 00 00 00 	CMP        $0,R7
    8c14:	1b 48 40 00 	MOV.Z      R1,R3
    8c18:	0a 00 00 02 	BREV       $2,R1
    8c1c:	bf 90 b9 88 	MOV        R2,R7          | AND        R1,R7
    8c20:	23 42 80 00 	MOV        R10,R4
    8c24:	21 80 00 0e 	LSL        $14,R4
    8c28:	0b 42 c0 00 	MOV        R11,R1
    8c2c:	09 80 00 0e 	LSL        $14,R1
    8c30:	33 41 00 00 	MOV        R4,R6
    8c34:	31 40 00 10 	LSR        $16,R6
    8c38:	30 c4 40 00 	OR         R1,R6
    8c3c:	30 85 40 00 	ADD        R5,R6
    8c40:	20 40 ff ff 	AND        $65535,R4
    8c44:	a2 98 8f a0 	ADD        R3,R4          | MOV        R4,R1
    8c48:	09 40 00 10 	LSR        $16,R1
    8c4c:	8a b0 bb 00 	ADD        R6,R1          | CMP        $0,R7
    8c50:	0b 49 40 00 	MOV.Z      R5,R1
    8c54:	20 40 ff ff 	AND        $65535,R4
    8c58:	3c 00 00 00 	CMP        $0,R7
    8c5c:	23 48 c0 00 	MOV.Z      R3,R4
    8c60:	51 80 00 0f 	LSL        $15,R10
    8c64:	59 80 00 0f 	LSL        $15,R11
    8c68:	1b 42 80 00 	MOV        R10,R3
    8c6c:	19 40 00 10 	LSR        $16,R3
    8c70:	18 c6 c0 00 	OR         R11,R3
    8c74:	18 84 40 00 	ADD        R1,R3
    8c78:	50 40 ff ff 	AND        $65535,R10
    8c7c:	50 85 00 00 	ADD        R4,R10
    8c80:	51 40 00 10 	LSR        $16,R10
    8c84:	d2 98 93 00 	ADD        R3,R10         | CMP        $0,R2
    8c88:	0b 52 80 00 	MOV.LT     R10,R1
    8c8c:	ac 00 b4 04 	LW         (SP),R5        | LW         4(SP),R6
    8c90:	bc 08 c4 0c 	LW         8(SP),R7       | LW         12(SP),R8
    8c94:	cc 10 d4 14 	LW         16(SP),R9      | LW         20(SP),R10
    8c98:	dc 18 e4 1c 	LW         24(SP),R11     | LW         28(SP),R12
    8c9c:	ea 20 ff 80 	ADD        $32,SP         | RTN

00008ca0 <soft_mpyshi>:
    8ca0:	e8 14 85 00 	SUB        $20,SP         | SW         R0,(SP)
    8ca4:	ad 04 b5 08 	SW         R5,$4(SP)      | SW         R6,$8(SP)
    8ca8:	bd 0c c5 10 	SW         R7,$12(SP)     | SW         R8,$16(SP)
    8cac:	2b 40 40 00 	MOV        R1,R5
    8cb0:	3b 40 80 00 	MOV        R2,R7
    8cb4:	43 40 40 00 	MOV        R1,R8
    8cb8:	44 43 ff ff 	TST        $-1,R8
    8cbc:	43 52 1f ff 	MOV.LT     $-1+R8,R8
    8cc0:	41 13 ff ff 	XOR.LT     $-1,R8
    8cc4:	33 40 80 00 	MOV        R2,R6
    8cc8:	34 43 ff ff 	TST        $-1,R6
    8ccc:	33 51 9f ff 	MOV.LT     $-1+R6,R6
    8cd0:	31 13 ff ff 	XOR.LT     $-1,R6
    8cd4:	97 b0 8f c0 	MOV        R6,R2          | MOV        R8,R1
    8cd8:	87 fa fc f8 	JSR        0x0000876c     // 876c <soft_mpyuhi>
    8cdc:	00 00 87 6c 
    8ce0:	29 05 c0 00 	XOR        R7,R5
    8ce4:	29 40 00 1f 	LSR        $31,R5
    8ce8:	78 88 00 18 	BZ         @0x00008d04    // 8d04 <soft_mpyshi+0x64>
    8cec:	33 06 00 00 	MPY        R8,R6
    8cf0:	78 88 00 08 	BZ         @0x00008cfc    // 8cfc <soft_mpyshi+0x5c>
    8cf4:	09 03 ff ff 	XOR        $-1,R1
    8cf8:	78 80 00 08 	BRA        @0x00008d04    // 8d04 <soft_mpyshi+0x64>
    8cfc:	0b 40 5f ff 	MOV        $-1+R1,R1
    8d00:	09 03 ff ff 	XOR        $-1,R1
    8d04:	84 00 ac 04 	LW         (SP),R0        | LW         4(SP),R5
    8d08:	b4 08 bc 0c 	LW         8(SP),R6       | LW         12(SP),R7
    8d0c:	c4 10 ea 14 	LW         16(SP),R8      | ADD        $20,SP
    8d10:	7b 40 00 00 	RTN

00008d14 <multiarg_subroutine>:
    8d14:	0c 00 00 00 	CMP        $0,R1
    8d18:	78 a8 00 3c 	BNZ        @0x00008d58    // 8d58 <multiarg_subroutine+0x44>
    8d1c:	14 00 00 01 	CMP        $1,R2
    8d20:	78 a8 00 38 	BNZ        @0x00008d5c    // 8d5c <multiarg_subroutine+0x48>
    8d24:	1c 00 00 02 	CMP        $2,R3
    8d28:	78 a8 00 34 	BNZ        @0x00008d60    // 8d60 <multiarg_subroutine+0x4c>
    8d2c:	24 00 00 03 	CMP        $3,R4
    8d30:	78 a8 00 30 	BNZ        @0x00008d64    // 8d64 <multiarg_subroutine+0x50>
    8d34:	2c 00 00 04 	CMP        $4,R5
    8d38:	78 a8 00 2c 	BNZ        @0x00008d68    // 8d68 <multiarg_subroutine+0x54>
    8d3c:	78 80 00 40 	BRA        @0x00008d80    // 8d80 <multiarg_subroutine+0x6c>
    8d40:	e8 04 ad 00 	SUB        $4,SP          | SW         R5,(SP)
    8d44:	94 04 93 05 	LW         4(SP),R2       | CMP        $5,R2
    8d48:	78 a8 00 20 	BNZ        @0x00008d6c    // 8d6c <multiarg_subroutine+0x58>
    8d4c:	94 08 93 06 	LW         8(SP),R2       | CMP        $6,R2
    8d50:	78 a8 00 20 	BNZ        @0x00008d74    // 8d74 <multiarg_subroutine+0x60>
    8d54:	78 80 00 20 	BRA        @0x00008d78    // 8d78 <multiarg_subroutine+0x64>
    8d58:	8e 01 ff 80 	LDI        $1,R1          | RTN
    8d5c:	8e 02 ff 80 	LDI        $2,R1          | RTN
    8d60:	8e 04 ff 80 	LDI        $4,R1          | RTN
    8d64:	8e 08 ff 80 	LDI        $8,R1          | RTN
    8d68:	8e 10 ff 80 	LDI        $16,R1         | RTN
    8d6c:	0e 00 00 20 	LDI        $32,R1
    8d70:	78 80 00 04 	BRA        @0x00008d78    // 8d78 <multiarg_subroutine+0x64>
    8d74:	0e 00 00 40 	LDI        $64,R1
    8d78:	ac 00 ea 04 	LW         (SP),R5        | ADD        $4,SP
    8d7c:	7b 40 00 00 	RTN
    8d80:	78 83 ff bc 	BRA        @0x00008d40    // 8d40 <multiarg_subroutine+0x2c>

00008d84 <multiarg_test>:
    8d84:	e8 10 85 08 	SUB        $16,SP         | SW         R0,$8(SP)
    8d88:	ad 0c 86 06 	SW         R5,$12(SP)     | LDI        $6,R0
    8d8c:	85 04 86 05 	SW         R0,$4(SP)      | LDI        $5,R0
    8d90:	85 00 ae 04 	SW         R0,(SP)        | LDI        $4,R5
    8d94:	a6 03 9e 02 	LDI        $3,R4          | LDI        $2,R3
    8d98:	96 01 8e 00 	LDI        $1,R2          | CLR        R1
    8d9c:	87 fa fc f8 	JSR        0x00008d14     // 8d14 <multiarg_subroutine>
    8da0:	00 00 8d 14 
    8da4:	84 08 ac 0c 	LW         8(SP),R0       | LW         12(SP),R5
    8da8:	ea 10 ff 80 	ADD        $16,SP         | RTN

00008dac <wait>:
    8dac:	12 00 ff fe 	BREV       $65534,R2
    8db0:	1b 40 40 00 	MOV        R1,R3
    8db4:	18 c4 80 00 	OR         R2,R3
    8db8:	1c c0 30 04 	SW         R3,($12292)
    8dbc:	7b 47 de 69 	MOV        $-1628+PC,uPC
    8dc0:	09 80 00 10 	LSL        $16,R1
    8dc4:	12 00 00 01 	BREV       $1,R2
    8dc8:	08 c4 80 00 	OR         R2,R1
    8dcc:	0c c0 30 04 	SW         R1,($12292)
    8dd0:	70 c0 00 30 	WAIT
    8dd4:	0e 00 00 00 	CLR        R1
    8dd8:	0c c0 30 04 	SW         R1,($12292)
    8ddc:	7b 40 00 00 	RTN

00008de0 <txchr.constprop.3>:
    8de0:	8f f0 89 20 	MOV        CC,R1          | AND        $32,R1
    8de4:	78 88 00 50 	BZ         @0x00008e38    // 8e38 <txchr.constprop.3+0x58>
    8de8:	0c 80 30 04 	LW         ($12292),R1
    8dec:	08 40 00 08 	AND        $8,R1
    8df0:	0a 28 00 00 	LDI.NZ     0x00000008,R1  // 8 <_start-0x7ff8>
    8df4:	0a 68 00 08 
    8df8:	0c e8 30 04 	SW.NZ      R1,($12292)
    8dfc:	0c 80 30 04 	LW         ($12292),R1
    8e00:	08 40 00 08 	AND        $8,R1
    8e04:	78 8b ff f4 	BZ         @0x00008dfc    // 8dfc <txchr.constprop.3+0x1c>
    8e08:	78 80 00 20 	BRA        @0x00008e2c    // 8e2c <txchr.constprop.3+0x4c>
    8e0c:	e8 04 85 00 	SUB        $4,SP          | SW         R0,(SP)
    8e10:	0e 00 00 08 	LDI        $8,R1
    8e14:	87 fa fc f8 	JSR        0x00008dac     // 8dac <wait>
    8e18:	00 00 8d ac 
    8e1c:	0e 00 00 20 	LDI        $32,R1
    8e20:	0c c0 20 0c 	SW         R1,($8204)
    8e24:	84 00 ea 04 	LW         (SP),R0        | ADD        $4,SP
    8e28:	7b 40 00 00 	RTN
    8e2c:	0e 00 00 20 	LDI        $32,R1
    8e30:	0c c0 20 0c 	SW         R1,($8204)
    8e34:	7b 40 00 00 	RTN
    8e38:	78 83 ff d0 	BRA        @0x00008e0c    // 8e0c <txchr.constprop.3+0x2c>

00008e3c <txchr>:
    8e3c:	e8 08 85 00 	SUB        $8,SP          | SW         R0,(SP)
    8e40:	2c c7 40 04 	SW         R5,$4(SP)
    8e44:	2b 40 40 00 	MOV        R1,R5
    8e48:	28 40 00 ff 	AND        $255,R5
    8e4c:	8f f0 89 20 	MOV        CC,R1          | AND        $32,R1
    8e50:	78 88 00 24 	BZ         @0x00008e78    // 8e78 <txchr+0x3c>
    8e54:	0c 80 30 04 	LW         ($12292),R1
    8e58:	08 40 00 08 	AND        $8,R1
    8e5c:	0a 28 00 00 	LDI.NZ     0x00000008,R1  // 8 <_start-0x7ff8>
    8e60:	0a 68 00 08 
    8e64:	0c e8 30 04 	SW.NZ      R1,($12292)
    8e68:	0c 80 30 04 	LW         ($12292),R1
    8e6c:	08 40 00 08 	AND        $8,R1
    8e70:	78 8b ff f4 	BZ         @0x00008e68    // 8e68 <txchr+0x2c>
    8e74:	78 80 00 0c 	BRA        @0x00008e84    // 8e84 <txchr+0x48>
    8e78:	0e 00 00 08 	LDI        $8,R1
    8e7c:	87 fa fc f8 	JSR        0x00008dac     // 8dac <wait>
    8e80:	00 00 8d ac 
    8e84:	2c c0 20 0c 	SW         R5,($8204)
    8e88:	84 00 ac 04 	LW         (SP),R0        | LW         4(SP),R5
    8e8c:	ea 08 ff 80 	ADD        $8,SP          | RTN

00008e90 <wait_for_uart_idle>:
    8e90:	0e 00 00 08 	LDI        $8,R1
    8e94:	0c c0 30 04 	SW         R1,($12292)
    8e98:	0c 80 30 04 	LW         ($12292),R1
    8e9c:	08 40 00 08 	AND        $8,R1
    8ea0:	78 8b ff f4 	BZ         @0x00008e98    // 8e98 <wait_for_uart_idle+0x8>
    8ea4:	7b 40 00 00 	RTN

00008ea8 <txstr>:
    8ea8:	e8 08 85 00 	SUB        $8,SP          | SW         R0,(SP)
    8eac:	2c c7 40 04 	SW         R5,$4(SP)
    8eb0:	2b 40 40 00 	MOV        R1,R5
    8eb4:	0d 84 40 00 	LB         (R1),R1
    8eb8:	0c 00 00 00 	CMP        $0,R1
    8ebc:	78 88 00 18 	BZ         @0x00008ed8    // 8ed8 <txstr+0x30>
    8ec0:	28 80 00 01 	ADD        $1,R5
    8ec4:	87 fa fc f8 	JSR        0x00008e3c     // 8e3c <txchr>
    8ec8:	00 00 8e 3c 
    8ecc:	0d 85 40 00 	LB         (R5),R1
    8ed0:	0c 00 00 00 	CMP        $0,R1
    8ed4:	78 ab ff e8 	BNZ        @0x00008ec0    // 8ec0 <txstr+0x18>
    8ed8:	84 00 ac 04 	LW         (SP),R0        | LW         4(SP),R5
    8edc:	ea 08 ff 80 	ADD        $8,SP          | RTN

00008ee0 <txhex>:
    8ee0:	e8 0c 85 00 	SUB        $12,SP         | SW         R0,(SP)
    8ee4:	ad 04 b5 08 	SW         R5,$4(SP)      | SW         R6,$8(SP)
    8ee8:	33 40 40 00 	MOV        R1,R6
    8eec:	2e 00 00 1c 	LDI        $28,R5
    8ef0:	0b 41 80 00 	MOV        R6,R1
    8ef4:	09 c5 40 00 	ASR        R5,R1
    8ef8:	89 0f 8b 0a 	AND        $15,R1         | CMP        $10,R1
    8efc:	78 90 00 08 	BLT        @0x00008f08    // 8f08 <txhex+0x28>
    8f00:	08 80 00 37 	ADD        $55,R1
    8f04:	78 80 00 04 	BRA        @0x00008f0c    // 8f0c <txhex+0x2c>
    8f08:	08 80 00 30 	ADD        $48,R1
    8f0c:	87 fa fc f8 	JSR        0x00008e3c     // 8e3c <txchr>
    8f10:	00 00 8e 3c 
    8f14:	aa 7c ab 7c 	ADD        $-4,R5         | CMP        $-4,R5
    8f18:	78 ab ff d4 	BNZ        @0x00008ef0    // 8ef0 <txhex+0x10>
    8f1c:	84 00 ac 04 	LW         (SP),R0        | LW         4(SP),R5
    8f20:	b4 08 ea 0c 	LW         8(SP),R6       | ADD        $12,SP
    8f24:	7b 40 00 00 	RTN

00008f28 <debugmpy>:
    8f28:	e8 18 85 00 	SUB        $24,SP         | SW         R0,(SP)
    8f2c:	ad 04 b5 08 	SW         R5,$4(SP)      | SW         R6,$8(SP)
    8f30:	bd 0c c5 10 	SW         R7,$12(SP)     | SW         R8,$16(SP)
    8f34:	4c c7 40 14 	SW         R9,$20(SP)
    8f38:	4b 40 40 00 	MOV        R1,R9
    8f3c:	43 40 80 00 	MOV        R2,R8
    8f40:	3b 40 c0 00 	MOV        R3,R7
    8f44:	33 41 00 00 	MOV        R4,R6
    8f48:	02 00 00 11 	LDI        0x88000004,R0  // 88000004 <_top_of_stack+0x87ff0004>
    8f4c:	02 40 00 04 
    8f50:	04 c0 10 00 	SW         R0,($4096)
    8f54:	0a 01 00 00 	LDI        0x0000b6e4,R1  // b6e4 <entry+0x1850>
    8f58:	0a 40 b6 e4 
    8f5c:	87 fa fc f8 	JSR        0x00008ea8     // 8ea8 <txstr>
    8f60:	00 00 8e a8 
    8f64:	0b 42 40 00 	MOV        R9,R1
    8f68:	87 fa fc f8 	JSR        0x00008ea8     // 8ea8 <txstr>
    8f6c:	00 00 8e a8 
    8f70:	0b 42 00 00 	MOV        R8,R1
    8f74:	87 fa fc f8 	JSR        0x00008ee0     // 8ee0 <txhex>
    8f78:	00 00 8e e0 
    8f7c:	0a 01 00 00 	LDI        0x0000b39c,R1  // b39c <entry+0x1508>
    8f80:	0a 40 b3 9c 
    8f84:	87 fa fc f8 	JSR        0x00008ea8     // 8ea8 <txstr>
    8f88:	00 00 8e a8 
    8f8c:	0b 41 c0 00 	MOV        R7,R1
    8f90:	87 fa fc f8 	JSR        0x00008ee0     // 8ee0 <txhex>
    8f94:	00 00 8e e0 
    8f98:	0a 01 00 00 	LDI        0x0000b3a0,R1  // b3a0 <entry+0x150c>
    8f9c:	0a 40 b3 a0 
    8fa0:	87 fa fc f8 	JSR        0x00008ea8     // 8ea8 <txstr>
    8fa4:	00 00 8e a8 
    8fa8:	0b 41 80 00 	MOV        R6,R1
    8fac:	87 fa fc f8 	JSR        0x00008ee0     // 8ee0 <txhex>
    8fb0:	00 00 8e e0 
    8fb4:	0a 01 00 00 	LDI        0x0000b3a4,R1  // b3a4 <entry+0x1510>
    8fb8:	0a 40 b3 a4 
    8fbc:	87 fa fc f8 	JSR        0x00008ea8     // 8ea8 <txstr>
    8fc0:	00 00 8e a8 
    8fc4:	0b 41 40 00 	MOV        R5,R1
    8fc8:	87 fa fc f8 	JSR        0x00008ee0     // 8ee0 <txhex>
    8fcc:	00 00 8e e0 
    8fd0:	0a 01 00 00 	LDI        0x0000b3b0,R1  // b3b0 <entry+0x151c>
    8fd4:	0a 40 b3 b0 
    8fd8:	84 00 ac 04 	LW         (SP),R0        | LW         4(SP),R5
    8fdc:	b4 08 bc 0c 	LW         8(SP),R6       | LW         12(SP),R7
    8fe0:	c4 10 cc 14 	LW         16(SP),R8      | LW         20(SP),R9
    8fe4:	68 80 00 18 	ADD        $24,SP
    8fe8:	78 83 fe bc 	BRA        @0x00008ea8    // 8ea8 <txstr>

00008fec <mpyhi_test>:
    8fec:	68 00 00 80 	SUB        $128,SP
    8ff0:	04 c7 40 5c 	SW         R0,$92(SP)
    8ff4:	2c c7 40 60 	SW         R5,$96(SP)
    8ff8:	34 c7 40 64 	SW         R6,$100(SP)
    8ffc:	3c c7 40 68 	SW         R7,$104(SP)
    9000:	44 c7 40 6c 	SW         R8,$108(SP)
    9004:	4c c7 40 70 	SW         R9,$112(SP)
    9008:	54 c7 40 74 	SW         R10,$116(SP)
    900c:	5c c7 40 78 	SW         R11,$120(SP)
    9010:	64 c7 40 7c 	SW         R12,$124(SP)
    9014:	5e 00 00 00 	CLR        R11
    9018:	63 42 c0 00 	MOV        R11,R12
    901c:	60 40 00 02 	AND        $2,R12
    9020:	78 88 00 e4 	BZ         @0x00009108    // 9108 <mpyhi_test+0x11c>
    9024:	2e 00 22 c1 	LDI        $8897,R5
    9028:	36 00 44 b6 	LDI        $17590,R6
    902c:	56 00 ba a3 	LDI        $47779,R10
    9030:	4e 00 bf 66 	LDI        $48998,R9
    9034:	3e 00 8a de 	LDI        $35550,R7
    9038:	46 00 ca 06 	LDI        $51718,R8
    903c:	06 00 ee b2 	LDI        $61106,R0
    9040:	04 c7 40 18 	SW         R0,$24(SP)
    9044:	16 00 82 0e 	LDI        $33294,R2
    9048:	14 c7 40 14 	SW         R2,$20(SP)
    904c:	06 00 86 94 	LDI        $34452,R0
    9050:	04 c7 40 10 	SW         R0,$16(SP)
    9054:	16 00 fc be 	LDI        $64702,R2
    9058:	14 c7 40 0c 	SW         R2,$12(SP)
    905c:	06 00 56 d0 	LDI        $22224,R0
    9060:	04 c7 40 08 	SW         R0,$8(SP)
    9064:	16 00 07 5e 	LDI        $1886,R2
    9068:	14 c7 40 04 	SW         R2,$4(SP)
    906c:	26 00 be ed 	LDI        $48877,R4
    9070:	06 00 8c ae 	LDI        $36014,R0
    9074:	04 c7 40 00 	SW         R0,(SP)
    9078:	16 00 08 b9 	LDI        $2233,R2
    907c:	14 c7 40 58 	SW         R2,$88(SP)
    9080:	06 00 e3 62 	LDI        $58210,R0
    9084:	04 c7 40 54 	SW         R0,$84(SP)
    9088:	16 00 a0 9c 	LDI        $41116,R2
    908c:	14 c7 40 50 	SW         R2,$80(SP)
    9090:	06 00 5e 12 	LDI        $24082,R0
    9094:	04 c7 40 4c 	SW         R0,$76(SP)
    9098:	16 00 70 d7 	LDI        $28887,R2
    909c:	14 c7 40 48 	SW         R2,$72(SP)
    90a0:	06 00 68 b2 	LDI        $26802,R0
    90a4:	04 c7 40 44 	SW         R0,$68(SP)
    90a8:	16 00 d4 ab 	LDI        $54443,R2
    90ac:	14 c7 40 40 	SW         R2,$64(SP)
    90b0:	06 00 20 ba 	LDI        $8378,R0
    90b4:	04 c7 40 3c 	SW         R0,$60(SP)
    90b8:	16 00 6c 8d 	LDI        $27789,R2
    90bc:	14 c7 40 38 	SW         R2,$56(SP)
    90c0:	06 00 9b 6a 	LDI        $39786,R0
    90c4:	04 c7 40 34 	SW         R0,$52(SP)
    90c8:	16 00 3c c8 	LDI        $15560,R2
    90cc:	14 c7 40 30 	SW         R2,$48(SP)
    90d0:	06 00 a6 0a 	LDI        $42506,R0
    90d4:	04 c7 40 2c 	SW         R0,$44(SP)
    90d8:	16 00 a4 e6 	LDI        $42214,R2
    90dc:	14 c7 40 28 	SW         R2,$40(SP)
    90e0:	06 00 2b 5a 	LDI        $11098,R0
    90e4:	04 c7 40 24 	SW         R0,$36(SP)
    90e8:	16 00 d8 f4 	LDI        $55540,R2
    90ec:	95 20 9e 05 	SW         R2,$32(SP)     | LDI        $5,R3
    90f0:	06 00 ee 02 	LDI        $60930,R0
    90f4:	04 c7 40 1c 	SW         R0,$28(SP)
    90f8:	0e 00 4f 56 	LDI        $20310,R1
    90fc:	06 00 f2 fc 	LDI        $62204,R0
    9100:	66 00 00 01 	LDI        $1,R12
    9104:	78 80 00 d8 	BRA        @0x000091e0    // 91e0 <mpyhi_test+0x1f4>
    9108:	8e 00 86 00 	CLR        R1             | CLR        R0
    910c:	2e 00 2f c4 	LDI        $12228,R5
    9110:	36 00 f5 60 	LDI        $62816,R6
    9114:	56 00 c7 a7 	LDI        $51111,R10
    9118:	4e 00 70 10 	LDI        $28688,R9
    911c:	3e 00 97 e2 	LDI        $38882,R7
    9120:	46 00 7a b0 	LDI        $31408,R8
    9124:	16 00 fb b6 	LDI        $64438,R2
    9128:	14 c7 40 18 	SW         R2,$24(SP)
    912c:	16 00 32 b8 	LDI        $12984,R2
    9130:	14 c7 40 14 	SW         R2,$20(SP)
    9134:	16 00 93 98 	LDI        $37784,R2
    9138:	14 c7 40 10 	SW         R2,$16(SP)
    913c:	16 00 ad 68 	LDI        $44392,R2
    9140:	14 c7 40 0c 	SW         R2,$12(SP)
    9144:	16 00 63 d3 	LDI        $25555,R2
    9148:	14 c7 40 08 	SW         R2,$8(SP)
    914c:	16 00 b8 08 	LDI        $47112,R2
    9150:	14 c7 40 04 	SW         R2,$4(SP)
    9154:	26 00 cb f1 	LDI        $52209,R4
    9158:	16 00 3d 58 	LDI        $15704,R2
    915c:	14 c7 40 00 	SW         R2,(SP)
    9160:	16 00 15 bd 	LDI        $5565,R2
    9164:	14 c7 40 58 	SW         R2,$88(SP)
    9168:	16 00 94 0c 	LDI        $37900,R2
    916c:	14 c7 40 54 	SW         R2,$84(SP)
    9170:	16 00 ad a0 	LDI        $44448,R2
    9174:	14 c7 40 50 	SW         R2,$80(SP)
    9178:	16 00 0e bc 	LDI        $3772,R2
    917c:	14 c7 40 4c 	SW         R2,$76(SP)
    9180:	16 00 7d db 	LDI        $32219,R2
    9184:	14 c7 40 48 	SW         R2,$72(SP)
    9188:	16 00 19 5c 	LDI        $6492,R2
    918c:	14 c7 40 44 	SW         R2,$68(SP)
    9190:	16 00 e1 ae 	LDI        $57774,R2
    9194:	14 c7 40 40 	SW         R2,$64(SP)
    9198:	16 00 d1 64 	LDI        $53604,R2
    919c:	14 c7 40 3c 	SW         R2,$60(SP)
    91a0:	16 00 79 91 	LDI        $31121,R2
    91a4:	14 c7 40 38 	SW         R2,$56(SP)
    91a8:	16 00 4c 14 	LDI        $19476,R2
    91ac:	14 c7 40 34 	SW         R2,$52(SP)
    91b0:	16 00 49 cc 	LDI        $18892,R2
    91b4:	14 c7 40 30 	SW         R2,$48(SP)
    91b8:	16 00 56 b4 	LDI        $22196,R2
    91bc:	14 c7 40 2c 	SW         R2,$44(SP)
    91c0:	16 00 b1 e9 	LDI        $45545,R2
    91c4:	14 c7 40 28 	SW         R2,$40(SP)
    91c8:	16 00 dc 04 	LDI        $56324,R2
    91cc:	14 c7 40 24 	SW         R2,$36(SP)
    91d0:	16 00 e5 f8 	LDI        $58872,R2
    91d4:	95 20 9e 03 	SW         R2,$32(SP)     | LDI        $3,R3
    91d8:	16 00 9e ac 	LDI        $40620,R2
    91dc:	14 c7 40 1c 	SW         R2,$28(SP)
    91e0:	13 42 c0 00 	MOV        R11,R2
    91e4:	10 40 00 04 	AND        $4,R2
    91e8:	78 88 00 48 	BZ         @0x00009234    // 9234 <mpyhi_test+0x248>
    91ec:	2c 87 40 58 	LW         88(SP),R5
    91f0:	34 87 40 54 	LW         84(SP),R6
    91f4:	54 87 40 50 	LW         80(SP),R10
    91f8:	4c 87 40 4c 	LW         76(SP),R9
    91fc:	3c 87 40 48 	LW         72(SP),R7
    9200:	44 87 40 44 	LW         68(SP),R8
    9204:	04 87 40 40 	LW         64(SP),R0
    9208:	85 18 94 3c 	SW         R0,$24(SP)     | LW         60(SP),R2
    920c:	95 14 84 38 	SW         R2,$20(SP)     | LW         56(SP),R0
    9210:	85 10 94 34 	SW         R0,$16(SP)     | LW         52(SP),R2
    9214:	95 0c 84 30 	SW         R2,$12(SP)     | LW         48(SP),R0
    9218:	85 08 94 2c 	SW         R0,$8(SP)      | LW         44(SP),R2
    921c:	95 04 a4 28 	SW         R2,$4(SP)      | LW         40(SP),R4
    9220:	84 24 85 00 	LW         36(SP),R0      | SW         R0,(SP)
    9224:	8c 1c 84 20 	LW         28(SP),R1      | LW         32(SP),R0
    9228:	63 40 c0 00 	MOV        R3,R12
    922c:	16 00 00 01 	LDI        $1,R2
    9230:	78 80 00 04 	BRA        @0x00009238    // 9238 <mpyhi_test+0x24c>
    9234:	13 43 00 00 	MOV        R12,R2
    9238:	1b 42 c0 00 	MOV        R11,R3
    923c:	18 40 00 08 	AND        $8,R3
    9240:	78 88 00 1c 	BZ         @0x00009260    // 9260 <mpyhi_test+0x274>
    9244:	e2 90 e2 07 	ADD        R2,R12         | ADD        $7,R12
    9248:	ac 18 b4 14 	LW         24(SP),R5      | LW         20(SP),R6
    924c:	d4 10 cc 0c 	LW         16(SP),R10     | LW         12(SP),R9
    9250:	bc 08 c4 04 	LW         8(SP),R7       | LW         4(SP),R8
    9254:	8c 00 87 a0 	LW         (SP),R1        | MOV        R4,R0
    9258:	9e 00 96 01 	CLR        R3             | LDI        $1,R2
    925c:	78 80 00 04 	BRA        @0x00009264    // 9264 <mpyhi_test+0x278>
    9260:	1b 40 80 00 	MOV        R2,R3
    9264:	23 42 c0 00 	MOV        R11,R4
    9268:	20 40 00 10 	AND        $16,R4
    926c:	78 88 00 18 	BZ         @0x00009288    // 9288 <mpyhi_test+0x29c>
    9270:	e2 90 e2 0f 	ADD        R2,R12         | ADD        $15,R12
    9274:	2b 42 80 00 	MOV        R10,R5
    9278:	33 42 40 00 	MOV        R9,R6
    927c:	0b 42 00 00 	MOV        R8,R1
    9280:	03 41 c0 00 	MOV        R7,R0
    9284:	1e 00 00 00 	CLR        R3
    9288:	13 42 c0 00 	MOV        R11,R2
    928c:	10 40 00 20 	AND        $32,R2
    9290:	78 88 00 0c 	BZ         @0x000092a0    // 92a0 <mpyhi_test+0x2b4>
    9294:	e2 98 e2 1f 	ADD        R3,R12         | ADD        $31,R12
    9298:	0b 41 80 00 	MOV        R6,R1
    929c:	03 41 40 00 	MOV        R5,R0
    92a0:	13 42 c0 00 	MOV        R11,R2
    92a4:	10 40 00 40 	AND        $64,R2
    92a8:	78 88 00 2c 	BZ         @0x000092d8    // 92d8 <mpyhi_test+0x2ec>
    92ac:	e2 3e 97 80 	ADD        $62,R12        | MOV        R0,R2
    92b0:	10 80 5f 89 	ADD        $24457,R2
    92b4:	08 80 ea c0 	ADD        $60096,R1
    92b8:	03 40 40 00 	MOV        R1,R0
    92bc:	01 40 00 10 	LSR        $16,R0
    92c0:	00 84 80 00 	ADD        R2,R0
    92c4:	08 40 ff ff 	AND        $65535,R1
    92c8:	13 40 00 00 	MOV        R0,R2
    92cc:	11 40 00 10 	LSR        $16,R2
    92d0:	92 e0 e7 90 	ADD        R12,R2         | MOV        R2,R12
    92d4:	00 40 ff ff 	AND        $65535,R0
    92d8:	13 42 c0 00 	MOV        R11,R2
    92dc:	10 40 00 80 	AND        $128,R2
    92e0:	78 88 00 30 	BZ         @0x00009314    // 9314 <mpyhi_test+0x328>
    92e4:	60 80 00 7c 	ADD        $124,R12
    92e8:	13 40 00 00 	MOV        R0,R2
    92ec:	10 80 bf 13 	ADD        $48915,R2
    92f0:	08 80 d5 80 	ADD        $54656,R1
    92f4:	03 40 40 00 	MOV        R1,R0
    92f8:	01 40 00 10 	LSR        $16,R0
    92fc:	00 84 80 00 	ADD        R2,R0
    9300:	08 40 ff ff 	AND        $65535,R1
    9304:	13 40 00 00 	MOV        R0,R2
    9308:	11 40 00 10 	LSR        $16,R2
    930c:	92 e0 e7 90 	ADD        R12,R2         | MOV        R2,R12
    9310:	00 40 ff ff 	AND        $65535,R0
    9314:	13 42 c0 00 	MOV        R11,R2
    9318:	10 40 01 00 	AND        $256,R2
    931c:	78 88 00 30 	BZ         @0x00009350    // 9350 <mpyhi_test+0x364>
    9320:	60 80 00 f9 	ADD        $249,R12
    9324:	13 40 00 00 	MOV        R0,R2
    9328:	10 80 7e 27 	ADD        $32295,R2
    932c:	08 80 ab 00 	ADD        $43776,R1
    9330:	03 40 40 00 	MOV        R1,R0
    9334:	01 40 00 10 	LSR        $16,R0
    9338:	00 84 80 00 	ADD        R2,R0
    933c:	08 40 ff ff 	AND        $65535,R1
    9340:	13 40 00 00 	MOV        R0,R2
    9344:	11 40 00 10 	LSR        $16,R2
    9348:	92 e0 e7 90 	ADD        R12,R2         | MOV        R2,R12
    934c:	00 40 ff ff 	AND        $65535,R0
    9350:	13 42 c0 00 	MOV        R11,R2
    9354:	10 40 02 00 	AND        $512,R2
    9358:	78 88 00 30 	BZ         @0x0000938c    // 938c <mpyhi_test+0x3a0>
    935c:	60 80 01 f2 	ADD        $498,R12
    9360:	13 40 00 00 	MOV        R0,R2
    9364:	10 80 fc 4f 	ADD        $64591,R2
    9368:	08 80 56 00 	ADD        $22016,R1
    936c:	03 40 40 00 	MOV        R1,R0
    9370:	01 40 00 10 	LSR        $16,R0
    9374:	00 84 80 00 	ADD        R2,R0
    9378:	08 40 ff ff 	AND        $65535,R1
    937c:	13 40 00 00 	MOV        R0,R2
    9380:	11 40 00 10 	LSR        $16,R2
    9384:	92 e0 e7 90 	ADD        R12,R2         | MOV        R2,R12
    9388:	00 40 ff ff 	AND        $65535,R0
    938c:	13 42 c0 00 	MOV        R11,R2
    9390:	10 40 04 00 	AND        $1024,R2
    9394:	78 88 00 30 	BZ         @0x000093c8    // 93c8 <mpyhi_test+0x3dc>
    9398:	60 80 03 e5 	ADD        $997,R12
    939c:	13 40 00 00 	MOV        R0,R2
    93a0:	10 80 f8 9e 	ADD        $63646,R2
    93a4:	08 80 ac 00 	ADD        $44032,R1
    93a8:	03 40 40 00 	MOV        R1,R0
    93ac:	01 40 00 10 	LSR        $16,R0
    93b0:	00 84 80 00 	ADD        R2,R0
    93b4:	08 40 ff ff 	AND        $65535,R1
    93b8:	13 40 00 00 	MOV        R0,R2
    93bc:	11 40 00 10 	LSR        $16,R2
    93c0:	92 e0 e7 90 	ADD        R12,R2         | MOV        R2,R12
    93c4:	00 40 ff ff 	AND        $65535,R0
    93c8:	13 42 c0 00 	MOV        R11,R2
    93cc:	10 40 08 00 	AND        $2048,R2
    93d0:	78 88 00 30 	BZ         @0x00009404    // 9404 <mpyhi_test+0x418>
    93d4:	60 80 07 cb 	ADD        $1995,R12
    93d8:	13 40 00 00 	MOV        R0,R2
    93dc:	10 80 f1 3d 	ADD        $61757,R2
    93e0:	08 80 58 00 	ADD        $22528,R1
    93e4:	03 40 40 00 	MOV        R1,R0
    93e8:	01 40 00 10 	LSR        $16,R0
    93ec:	00 84 80 00 	ADD        R2,R0
    93f0:	08 40 ff ff 	AND        $65535,R1
    93f4:	13 40 00 00 	MOV        R0,R2
    93f8:	11 40 00 10 	LSR        $16,R2
    93fc:	92 e0 e7 90 	ADD        R12,R2         | MOV        R2,R12
    9400:	00 40 ff ff 	AND        $65535,R0
    9404:	13 42 c0 00 	MOV        R11,R2
    9408:	10 40 10 00 	AND        $4096,R2
    940c:	78 88 00 30 	BZ         @0x00009440    // 9440 <mpyhi_test+0x454>
    9410:	60 80 0f 97 	ADD        $3991,R12
    9414:	13 40 00 00 	MOV        R0,R2
    9418:	10 80 e2 7a 	ADD        $57978,R2
    941c:	08 80 b0 00 	ADD        $45056,R1
    9420:	03 40 40 00 	MOV        R1,R0
    9424:	01 40 00 10 	LSR        $16,R0
    9428:	00 84 80 00 	ADD        R2,R0
    942c:	08 40 ff ff 	AND        $65535,R1
    9430:	13 40 00 00 	MOV        R0,R2
    9434:	11 40 00 10 	LSR        $16,R2
    9438:	92 e0 e7 90 	ADD        R12,R2         | MOV        R2,R12
    943c:	00 40 ff ff 	AND        $65535,R0
    9440:	13 42 c0 00 	MOV        R11,R2
    9444:	10 40 20 00 	AND        $8192,R2
    9448:	78 88 00 30 	BZ         @0x0000947c    // 947c <mpyhi_test+0x490>
    944c:	60 80 1f 2f 	ADD        $7983,R12
    9450:	13 40 00 00 	MOV        R0,R2
    9454:	10 80 c4 f5 	ADD        $50421,R2
    9458:	08 80 60 00 	ADD        $24576,R1
    945c:	03 40 40 00 	MOV        R1,R0
    9460:	01 40 00 10 	LSR        $16,R0
    9464:	00 84 80 00 	ADD        R2,R0
    9468:	08 40 ff ff 	AND        $65535,R1
    946c:	13 40 00 00 	MOV        R0,R2
    9470:	11 40 00 10 	LSR        $16,R2
    9474:	92 e0 e7 90 	ADD        R12,R2         | MOV        R2,R12
    9478:	00 40 ff ff 	AND        $65535,R0
    947c:	13 42 c0 00 	MOV        R11,R2
    9480:	10 40 40 00 	AND        $16384,R2
    9484:	78 88 00 30 	BZ         @0x000094b8    // 94b8 <mpyhi_test+0x4cc>
    9488:	60 80 3e 5f 	ADD        $15967,R12
    948c:	13 40 00 00 	MOV        R0,R2
    9490:	10 80 89 ea 	ADD        $35306,R2
    9494:	08 80 c0 00 	ADD        $49152,R1
    9498:	03 40 40 00 	MOV        R1,R0
    949c:	01 40 00 10 	LSR        $16,R0
    94a0:	00 84 80 00 	ADD        R2,R0
    94a4:	08 40 ff ff 	AND        $65535,R1
    94a8:	13 40 00 00 	MOV        R0,R2
    94ac:	11 40 00 10 	LSR        $16,R2
    94b0:	92 e0 e7 90 	ADD        R12,R2         | MOV        R2,R12
    94b4:	00 40 ff ff 	AND        $65535,R0
    94b8:	13 42 c0 00 	MOV        R11,R2
    94bc:	10 40 80 00 	AND        $32768,R2
    94c0:	78 88 00 2c 	BZ         @0x000094f0    // 94f0 <mpyhi_test+0x504>
    94c4:	60 80 7c bf 	ADD        $31935,R12
    94c8:	13 40 00 00 	MOV        R0,R2
    94cc:	10 80 13 d5 	ADD        $5077,R2
    94d0:	03 40 40 00 	MOV        R1,R0
    94d4:	00 80 80 00 	ADD        $32768,R0
    94d8:	01 40 00 10 	LSR        $16,R0
    94dc:	82 90 8f 80 	ADD        R2,R0          | MOV        R0,R1
    94e0:	09 40 00 10 	LSR        $16,R1
    94e4:	08 87 00 00 	ADD        R12,R1
    94e8:	63 40 40 00 	MOV        R1,R12
    94ec:	00 40 ff ff 	AND        $65535,R0
    94f0:	0b 42 c0 00 	MOV        R11,R1
    94f4:	08 41 00 00 	AND        $65536,R1
    94f8:	78 88 00 1c 	BZ         @0x00009518    // 9518 <mpyhi_test+0x52c>
    94fc:	60 80 f9 7e 	ADD        $63870,R12
    9500:	00 80 27 ab 	ADD        $10155,R0
    9504:	0b 40 00 00 	MOV        R0,R1
    9508:	09 40 00 10 	LSR        $16,R1
    950c:	08 87 00 00 	ADD        R12,R1
    9510:	63 40 40 00 	MOV        R1,R12
    9514:	00 40 ff ff 	AND        $65535,R0
    9518:	0e 02 00 00 	LDI        $131072,R1
    951c:	13 42 c0 00 	MOV        R11,R2
    9520:	10 44 40 00 	AND        R1,R2
    9524:	78 88 00 1c 	BZ         @0x00009544    // 9544 <mpyhi_test+0x558>
    9528:	60 81 f2 fc 	ADD        $127740,R12
    952c:	00 80 4f 56 	ADD        $20310,R0
    9530:	0b 40 00 00 	MOV        R0,R1
    9534:	09 40 00 10 	LSR        $16,R1
    9538:	08 87 00 00 	ADD        R12,R1
    953c:	63 40 40 00 	MOV        R1,R12
    9540:	00 40 ff ff 	AND        $65535,R0
    9544:	0e 04 00 00 	LDI        $262144,R1
    9548:	13 42 c0 00 	MOV        R11,R2
    954c:	10 44 40 00 	AND        R1,R2
    9550:	78 88 00 20 	BZ         @0x00009574    // 9574 <mpyhi_test+0x588>
    9554:	0e 03 e5 f8 	LDI        $255480,R1
    9558:	60 84 40 00 	ADD        R1,R12
    955c:	00 80 9e ac 	ADD        $40620,R0
    9560:	0b 40 00 00 	MOV        R0,R1
    9564:	09 40 00 10 	LSR        $16,R1
    9568:	08 87 00 00 	ADD        R12,R1
    956c:	63 40 40 00 	MOV        R1,R12
    9570:	00 40 ff ff 	AND        $65535,R0
    9574:	0e 08 00 00 	LDI        $524288,R1
    9578:	13 42 c0 00 	MOV        R11,R2
    957c:	10 44 40 00 	AND        R1,R2
    9580:	78 88 00 20 	BZ         @0x000095a4    // 95a4 <mpyhi_test+0x5b8>
    9584:	0e 07 cb f1 	LDI        $510961,R1
    9588:	60 84 40 00 	ADD        R1,R12
    958c:	00 80 3d 58 	ADD        $15704,R0
    9590:	0b 40 00 00 	MOV        R0,R1
    9594:	09 40 00 10 	LSR        $16,R1
    9598:	08 87 00 00 	ADD        R12,R1
    959c:	63 40 40 00 	MOV        R1,R12
    95a0:	00 40 ff ff 	AND        $65535,R0
    95a4:	0e 10 00 00 	LDI        $1048576,R1
    95a8:	13 42 c0 00 	MOV        R11,R2
    95ac:	10 44 40 00 	AND        R1,R2
    95b0:	78 88 00 20 	BZ         @0x000095d4    // 95d4 <mpyhi_test+0x5e8>
    95b4:	0e 0f 97 e2 	LDI        $1021922,R1
    95b8:	60 84 40 00 	ADD        R1,R12
    95bc:	00 80 7a b0 	ADD        $31408,R0
    95c0:	0b 40 00 00 	MOV        R0,R1
    95c4:	09 40 00 10 	LSR        $16,R1
    95c8:	08 87 00 00 	ADD        R12,R1
    95cc:	63 40 40 00 	MOV        R1,R12
    95d0:	00 40 ff ff 	AND        $65535,R0
    95d4:	0e 20 00 00 	LDI        $2097152,R1
    95d8:	13 42 c0 00 	MOV        R11,R2
    95dc:	10 44 40 00 	AND        R1,R2
    95e0:	78 88 00 20 	BZ         @0x00009604    // 9604 <mpyhi_test+0x618>
    95e4:	0e 1f 2f c4 	LDI        $2043844,R1
    95e8:	60 84 40 00 	ADD        R1,R12
    95ec:	00 80 f5 60 	ADD        $62816,R0
    95f0:	0b 40 00 00 	MOV        R0,R1
    95f4:	09 40 00 10 	LSR        $16,R1
    95f8:	08 87 00 00 	ADD        R12,R1
    95fc:	63 40 40 00 	MOV        R1,R12
    9600:	00 40 ff ff 	AND        $65535,R0
    9604:	0a 00 02 00 	BREV       $512,R1
    9608:	13 42 c0 00 	MOV        R11,R2
    960c:	10 44 40 00 	AND        R1,R2
    9610:	78 88 00 20 	BZ         @0x00009634    // 9634 <mpyhi_test+0x648>
    9614:	0e 3e 5f 89 	LDI        $4087689,R1
    9618:	60 84 40 00 	ADD        R1,R12
    961c:	00 80 ea c0 	ADD        $60096,R0
    9620:	0b 40 00 00 	MOV        R0,R1
    9624:	09 40 00 10 	LSR        $16,R1
    9628:	08 87 00 00 	ADD        R12,R1
    962c:	63 40 40 00 	MOV        R1,R12
    9630:	00 40 ff ff 	AND        $65535,R0
    9634:	0a 00 01 00 	BREV       $256,R1
    9638:	13 42 c0 00 	MOV        R11,R2
    963c:	10 44 40 00 	AND        R1,R2
    9640:	78 88 00 24 	BZ         @0x00009668    // 9668 <mpyhi_test+0x67c>
    9644:	0a 01 3e 00 	LDI        0x007cbf13,R1  // 7cbf13 <_top_of_stack+0x7bbf13>
    9648:	0a 40 bf 13 
    964c:	60 84 40 00 	ADD        R1,R12
    9650:	00 80 d5 80 	ADD        $54656,R0
    9654:	0b 40 00 00 	MOV        R0,R1
    9658:	09 40 00 10 	LSR        $16,R1
    965c:	08 87 00 00 	ADD        R12,R1
    9660:	63 40 40 00 	MOV        R1,R12
    9664:	00 40 ff ff 	AND        $65535,R0
    9668:	0a 00 00 80 	BREV       $128,R1
    966c:	13 42 c0 00 	MOV        R11,R2
    9670:	10 44 40 00 	AND        R1,R2
    9674:	78 88 00 24 	BZ         @0x0000969c    // 969c <mpyhi_test+0x6b0>
    9678:	0a 00 9f 00 	LDI        0x00f97e27,R1  // f97e27 <_top_of_stack+0xf87e27>
    967c:	0a 40 7e 27 
    9680:	60 84 40 00 	ADD        R1,R12
    9684:	00 80 ab 00 	ADD        $43776,R0
    9688:	0b 40 00 00 	MOV        R0,R1
    968c:	09 40 00 10 	LSR        $16,R1
    9690:	08 87 00 00 	ADD        R12,R1
    9694:	63 40 40 00 	MOV        R1,R12
    9698:	00 40 ff ff 	AND        $65535,R0
    969c:	0a 00 00 40 	BREV       $64,R1
    96a0:	13 42 c0 00 	MOV        R11,R2
    96a4:	10 44 40 00 	AND        R1,R2
    96a8:	78 88 00 24 	BZ         @0x000096d0    // 96d0 <mpyhi_test+0x6e4>
    96ac:	0a 01 4f 80 	LDI        0x01f2fc4f,R1  // 1f2fc4f <_top_of_stack+0x1f1fc4f>
    96b0:	0a 40 fc 4f 
    96b4:	60 84 40 00 	ADD        R1,R12
    96b8:	00 80 56 00 	ADD        $22016,R0
    96bc:	0b 40 00 00 	MOV        R0,R1
    96c0:	09 40 00 10 	LSR        $16,R1
    96c4:	08 87 00 00 	ADD        R12,R1
    96c8:	63 40 40 00 	MOV        R1,R12
    96cc:	00 40 ff ff 	AND        $65535,R0
    96d0:	0a 00 00 20 	BREV       $32,R1
    96d4:	13 42 c0 00 	MOV        R11,R2
    96d8:	10 44 40 00 	AND        R1,R2
    96dc:	78 88 00 24 	BZ         @0x00009704    // 9704 <mpyhi_test+0x718>
    96e0:	0a 01 a7 c0 	LDI        0x03e5f89e,R1  // 3e5f89e <_top_of_stack+0x3e4f89e>
    96e4:	0a 40 f8 9e 
    96e8:	60 84 40 00 	ADD        R1,R12
    96ec:	00 80 ac 00 	ADD        $44032,R0
    96f0:	0b 40 00 00 	MOV        R0,R1
    96f4:	09 40 00 10 	LSR        $16,R1
    96f8:	08 87 00 00 	ADD        R12,R1
    96fc:	63 40 40 00 	MOV        R1,R12
    9700:	00 40 ff ff 	AND        $65535,R0
    9704:	0a 00 00 10 	BREV       $16,R1
    9708:	13 42 c0 00 	MOV        R11,R2
    970c:	10 44 40 00 	AND        R1,R2
    9710:	78 88 00 24 	BZ         @0x00009738    // 9738 <mpyhi_test+0x74c>
    9714:	0a 01 d3 e0 	LDI        0x07cbf13d,R1  // 7cbf13d <_top_of_stack+0x7caf13d>
    9718:	0a 40 f1 3d 
    971c:	60 84 40 00 	ADD        R1,R12
    9720:	00 80 58 00 	ADD        $22528,R0
    9724:	0b 40 00 00 	MOV        R0,R1
    9728:	09 40 00 10 	LSR        $16,R1
    972c:	08 87 00 00 	ADD        R12,R1
    9730:	63 40 40 00 	MOV        R1,R12
    9734:	00 40 ff ff 	AND        $65535,R0
    9738:	0a 00 00 08 	BREV       $8,R1
    973c:	13 42 c0 00 	MOV        R11,R2
    9740:	10 44 40 00 	AND        R1,R2
    9744:	78 88 00 24 	BZ         @0x0000976c    // 976c <mpyhi_test+0x780>
    9748:	0a 01 e9 f0 	LDI        0x0f97e27a,R1  // f97e27a <_top_of_stack+0xf96e27a>
    974c:	0a 40 e2 7a 
    9750:	60 84 40 00 	ADD        R1,R12
    9754:	00 80 b0 00 	ADD        $45056,R0
    9758:	0b 40 00 00 	MOV        R0,R1
    975c:	09 40 00 10 	LSR        $16,R1
    9760:	08 87 00 00 	ADD        R12,R1
    9764:	63 40 40 00 	MOV        R1,R12
    9768:	00 40 ff ff 	AND        $65535,R0
    976c:	0a 00 00 04 	BREV       $4,R1
    9770:	13 42 c0 00 	MOV        R11,R2
    9774:	10 44 40 00 	AND        R1,R2
    9778:	78 88 00 24 	BZ         @0x000097a0    // 97a0 <mpyhi_test+0x7b4>
    977c:	0a 01 f4 f8 	LDI        0x1f2fc4f5,R1  // 1f2fc4f5 <_top_of_stack+0x1f2ec4f5>
    9780:	0a 40 c4 f5 
    9784:	60 84 40 00 	ADD        R1,R12
    9788:	00 80 60 00 	ADD        $24576,R0
    978c:	0b 40 00 00 	MOV        R0,R1
    9790:	09 40 00 10 	LSR        $16,R1
    9794:	08 87 00 00 	ADD        R12,R1
    9798:	63 40 40 00 	MOV        R1,R12
    979c:	00 40 ff ff 	AND        $65535,R0
    97a0:	0a 00 00 02 	BREV       $2,R1
    97a4:	13 42 c0 00 	MOV        R11,R2
    97a8:	10 44 40 00 	AND        R1,R2
    97ac:	78 88 00 18 	BZ         @0x000097c8    // 97c8 <mpyhi_test+0x7dc>
    97b0:	0a 01 fa 7c 	LDI        0x3e5f89ea,R1  // 3e5f89ea <_top_of_stack+0x3e5e89ea>
    97b4:	0a 40 89 ea 
    97b8:	60 84 40 00 	ADD        R1,R12
    97bc:	00 80 c0 00 	ADD        $49152,R0
    97c0:	01 40 00 10 	LSR        $16,R0
    97c4:	82 e0 e7 80 	ADD        R12,R0         | MOV        R0,R12
    97c8:	13 42 c0 00 	MOV        R11,R2
    97cc:	0a 00 7e 9f 	LDI        0xf97e27ab,R1  // f97e27ab <_top_of_stack+0xf97d27ab>
    97d0:	0a 40 27 ab 
    97d4:	87 fa fc f8 	JSR        0x000084c8     // 84c8 <hard_mpyuhi>
    97d8:	00 00 84 c8 
    97dc:	0c 07 00 00 	CMP        R12,R1
    97e0:	78 88 02 1c 	BZ         @0x00009a00    // 9a00 <mpyhi_test+0xa14>
    97e4:	2b 40 40 00 	MOV        R1,R5
    97e8:	02 00 00 11 	LDI        0x88000004,R0  // 88000004 <_top_of_stack+0x87ff0004>
    97ec:	02 40 00 04 
    97f0:	04 c0 10 00 	SW         R0,($4096)
    97f4:	0a 01 00 00 	LDI        0x0000b6e4,R1  // b6e4 <entry+0x1850>
    97f8:	0a 40 b6 e4 
    97fc:	87 fa fc f8 	JSR        0x00008ea8     // 8ea8 <txstr>
    9800:	00 00 8e a8 
    9804:	0a 01 00 00 	LDI        0x0000b3bc,R1  // b3bc <entry+0x1528>
    9808:	0a 40 b3 bc 
    980c:	87 fa fc f8 	JSR        0x00008ea8     // 8ea8 <txstr>
    9810:	00 00 8e a8 
    9814:	0a 00 7e 9f 	LDI        0xf97e27ab,R1  // f97e27ab <_top_of_stack+0xf97d27ab>
    9818:	0a 40 27 ab 
    981c:	87 fa fc f8 	JSR        0x00008ee0     // 8ee0 <txhex>
    9820:	00 00 8e e0 
    9824:	0a 01 00 00 	LDI        0x0000b39c,R1  // b39c <entry+0x1508>
    9828:	0a 40 b3 9c 
    982c:	87 fa fc f8 	JSR        0x00008ea8     // 8ea8 <txstr>
    9830:	00 00 8e a8 
    9834:	0b 42 c0 00 	MOV        R11,R1
    9838:	87 fa fc f8 	JSR        0x00008ee0     // 8ee0 <txhex>
    983c:	00 00 8e e0 
    9840:	0a 01 00 00 	LDI        0x0000b3a0,R1  // b3a0 <entry+0x150c>
    9844:	0a 40 b3 a0 
    9848:	87 fa fc f8 	JSR        0x00008ea8     // 8ea8 <txstr>
    984c:	00 00 8e a8 
    9850:	0b 43 00 00 	MOV        R12,R1
    9854:	87 fa fc f8 	JSR        0x00008ee0     // 8ee0 <txhex>
    9858:	00 00 8e e0 
    985c:	0a 01 00 00 	LDI        0x0000b3a4,R1  // b3a4 <entry+0x1510>
    9860:	0a 40 b3 a4 
    9864:	87 fa fc f8 	JSR        0x00008ea8     // 8ea8 <txstr>
    9868:	00 00 8e a8 
    986c:	0b 41 40 00 	MOV        R5,R1
    9870:	87 fa fc f8 	JSR        0x00008ee0     // 8ee0 <txhex>
    9874:	00 00 8e e0 
    9878:	0a 01 00 00 	LDI        0x0000b3b0,R1  // b3b0 <entry+0x151c>
    987c:	0a 40 b3 b0 
    9880:	87 fa fc f8 	JSR        0x00008ea8     // 8ea8 <txstr>
    9884:	00 00 8e a8 
    9888:	0e 00 00 01 	LDI        $1,R1
    988c:	78 80 01 ec 	BRA        @0x00009a7c    // 9a7c <mpyhi_test+0xa90>
    9890:	12 00 00 11 	LDI        0x88000004,R2  // 88000004 <_top_of_stack+0x87ff0004>
    9894:	12 40 00 04 
    9898:	14 c0 10 00 	SW         R2,($4096)
    989c:	0a 01 00 00 	LDI        0x0000b6e4,R1  // b6e4 <entry+0x1850>
    98a0:	0a 40 b6 e4 
    98a4:	87 fa fc f8 	JSR        0x00008ea8     // 8ea8 <txstr>
    98a8:	00 00 8e a8 
    98ac:	0a 01 00 00 	LDI        0x0000b3c8,R1  // b3c8 <entry+0x1534>
    98b0:	0a 40 b3 c8 
    98b4:	87 fa fc f8 	JSR        0x00008ea8     // 8ea8 <txstr>
    98b8:	00 00 8e a8 
    98bc:	0a 00 7e 9f 	LDI        0xf97e27ab,R1  // f97e27ab <_top_of_stack+0xf97d27ab>
    98c0:	0a 40 27 ab 
    98c4:	87 fa fc f8 	JSR        0x00008ee0     // 8ee0 <txhex>
    98c8:	00 00 8e e0 
    98cc:	0a 01 00 00 	LDI        0x0000b39c,R1  // b39c <entry+0x1508>
    98d0:	0a 40 b3 9c 
    98d4:	87 fa fc f8 	JSR        0x00008ea8     // 8ea8 <txstr>
    98d8:	00 00 8e a8 
    98dc:	0b 42 c0 00 	MOV        R11,R1
    98e0:	87 fa fc f8 	JSR        0x00008ee0     // 8ee0 <txhex>
    98e4:	00 00 8e e0 
    98e8:	0a 01 00 00 	LDI        0x0000b3a0,R1  // b3a0 <entry+0x150c>
    98ec:	0a 40 b3 a0 
    98f0:	87 fa fc f8 	JSR        0x00008ea8     // 8ea8 <txstr>
    98f4:	00 00 8e a8 
    98f8:	0b 41 80 00 	MOV        R6,R1
    98fc:	87 fa fc f8 	JSR        0x00008ee0     // 8ee0 <txhex>
    9900:	00 00 8e e0 
    9904:	0a 01 00 00 	LDI        0x0000b3a4,R1  // b3a4 <entry+0x1510>
    9908:	0a 40 b3 a4 
    990c:	87 fa fc f8 	JSR        0x00008ea8     // 8ea8 <txstr>
    9910:	00 00 8e a8 
    9914:	0b 41 c0 00 	MOV        R7,R1
    9918:	87 fa fc f8 	JSR        0x00008ee0     // 8ee0 <txhex>
    991c:	00 00 8e e0 
    9920:	0a 01 00 00 	LDI        0x0000b3b0,R1  // b3b0 <entry+0x151c>
    9924:	0a 40 b3 b0 
    9928:	87 fa fc f8 	JSR        0x00008ea8     // 8ea8 <txstr>
    992c:	00 00 8e a8 
    9930:	0e 00 00 02 	LDI        $2,R1
    9934:	78 80 01 44 	BRA        @0x00009a7c    // 9a7c <mpyhi_test+0xa90>
    9938:	02 00 00 11 	LDI        0x88000004,R0  // 88000004 <_top_of_stack+0x87ff0004>
    993c:	02 40 00 04 
    9940:	04 c0 10 00 	SW         R0,($4096)
    9944:	0a 01 00 00 	LDI        0x0000b6e4,R1  // b6e4 <entry+0x1850>
    9948:	0a 40 b6 e4 
    994c:	87 fa fc f8 	JSR        0x00008ea8     // 8ea8 <txstr>
    9950:	00 00 8e a8 
    9954:	0a 01 00 00 	LDI        0x0000b3d4,R1  // b3d4 <entry+0x1540>
    9958:	0a 40 b3 d4 
    995c:	87 fa fc f8 	JSR        0x00008ea8     // 8ea8 <txstr>
    9960:	00 00 8e a8 
    9964:	0a 01 81 60 	LDI        0x0681d855,R1  // 681d855 <_top_of_stack+0x680d855>
    9968:	0a 40 d8 55 
    996c:	87 fa fc f8 	JSR        0x00008ee0     // 8ee0 <txhex>
    9970:	00 00 8e e0 
    9974:	0a 01 00 00 	LDI        0x0000b39c,R1  // b39c <entry+0x1508>
    9978:	0a 40 b3 9c 
    997c:	87 fa fc f8 	JSR        0x00008ea8     // 8ea8 <txstr>
    9980:	00 00 8e a8 
    9984:	0b 42 c0 00 	MOV        R11,R1
    9988:	87 fa fc f8 	JSR        0x00008ee0     // 8ee0 <txhex>
    998c:	00 00 8e e0 
    9990:	0a 01 00 00 	LDI        0x0000b3a0,R1  // b3a0 <entry+0x150c>
    9994:	0a 40 b3 a0 
    9998:	87 fa fc f8 	JSR        0x00008ea8     // 8ea8 <txstr>
    999c:	00 00 8e a8 
    99a0:	0b 41 40 00 	MOV        R5,R1
    99a4:	87 fa fc f8 	JSR        0x00008ee0     // 8ee0 <txhex>
    99a8:	00 00 8e e0 
    99ac:	0a 01 00 00 	LDI        0x0000b3a4,R1  // b3a4 <entry+0x1510>
    99b0:	0a 40 b3 a4 
    99b4:	87 fa fc f8 	JSR        0x00008ea8     // 8ea8 <txstr>
    99b8:	00 00 8e a8 
    99bc:	0b 41 80 00 	MOV        R6,R1
    99c0:	87 fa fc f8 	JSR        0x00008ee0     // 8ee0 <txhex>
    99c4:	00 00 8e e0 
    99c8:	0a 01 00 00 	LDI        0x0000b3b0,R1  // b3b0 <entry+0x151c>
    99cc:	0a 40 b3 b0 
    99d0:	87 fa fc f8 	JSR        0x00008ea8     // 8ea8 <txstr>
    99d4:	00 00 8e a8 
    99d8:	0e 00 00 03 	LDI        $3,R1
    99dc:	78 80 00 9c 	BRA        @0x00009a7c    // 9a7c <mpyhi_test+0xa90>
    99e0:	0e 0b 27 2e 	LDI        $730926,R1
    99e4:	58 84 40 00 	ADD        R1,R11
    99e8:	0a 00 40 0e 	LDI        0x70027afa,R1  // 70027afa <_top_of_stack+0x70017afa>
    99ec:	0a 40 7a fa 
    99f0:	5c 04 40 00 	CMP        R1,R11
    99f4:	78 ab f6 20 	BNZ        @0x00009018    // 9018 <mpyhi_test+0x2c>
    99f8:	0e 00 00 00 	CLR        R1
    99fc:	78 80 00 7c 	BRA        @0x00009a7c    // 9a7c <mpyhi_test+0xa90>
    9a00:	13 42 c0 00 	MOV        R11,R2
    9a04:	0a 01 81 60 	LDI        0x0681d855,R1  // 681d855 <_top_of_stack+0x680d855>
    9a08:	0a 40 d8 55 
    9a0c:	87 fa fc f8 	JSR        0x0000876c     // 876c <soft_mpyuhi>
    9a10:	00 00 87 6c 
    9a14:	2b 40 40 00 	MOV        R1,R5
    9a18:	33 40 5f ff 	MOV        $-1+R1,R6
    9a1c:	31 03 ff ff 	XOR        $-1,R6
    9a20:	5c 00 00 00 	CMP        $0,R11
    9a24:	78 88 00 30 	BZ         @0x00009a58    // 9a58 <mpyhi_test+0xa6c>
    9a28:	78 80 00 24 	BRA        @0x00009a50    // 9a50 <mpyhi_test+0xa64>
    9a2c:	13 42 c0 00 	MOV        R11,R2
    9a30:	0a 01 81 60 	LDI        0x0681d855,R1  // 681d855 <_top_of_stack+0x680d855>
    9a34:	0a 40 d8 55 
    9a38:	87 fa fc f8 	JSR        0x000084d0     // 84d0 <hard_mpyshi>
    9a3c:	00 00 84 d0 
    9a40:	0c 05 40 00 	CMP        R5,R1
    9a44:	78 8b ff 98 	BZ         @0x000099e0    // 99e0 <mpyhi_test+0x9f4>
    9a48:	33 40 40 00 	MOV        R1,R6
    9a4c:	78 83 fe e8 	BRA        @0x00009938    // 9938 <mpyhi_test+0x94c>
    9a50:	33 40 40 00 	MOV        R1,R6
    9a54:	31 03 ff ff 	XOR        $-1,R6
    9a58:	13 42 c0 00 	MOV        R11,R2
    9a5c:	0a 00 7e 9f 	LDI        0xf97e27ab,R1  // f97e27ab <_top_of_stack+0xf97d27ab>
    9a60:	0a 40 27 ab 
    9a64:	87 fa fc f8 	JSR        0x000084d0     // 84d0 <hard_mpyshi>
    9a68:	00 00 84 d0 
    9a6c:	0c 05 80 00 	CMP        R6,R1
    9a70:	78 8b ff b8 	BZ         @0x00009a2c    // 9a2c <mpyhi_test+0xa40>
    9a74:	3b 40 40 00 	MOV        R1,R7
    9a78:	78 83 fe 14 	BRA        @0x00009890    // 9890 <mpyhi_test+0x8a4>
    9a7c:	04 87 40 5c 	LW         92(SP),R0
    9a80:	2c 87 40 60 	LW         96(SP),R5
    9a84:	34 87 40 64 	LW         100(SP),R6
    9a88:	3c 87 40 68 	LW         104(SP),R7
    9a8c:	44 87 40 6c 	LW         108(SP),R8
    9a90:	4c 87 40 70 	LW         112(SP),R9
    9a94:	54 87 40 74 	LW         116(SP),R10
    9a98:	5c 87 40 78 	LW         120(SP),R11
    9a9c:	64 87 40 7c 	LW         124(SP),R12
    9aa0:	68 80 00 80 	ADD        $128,SP
    9aa4:	7b 40 00 00 	RTN

00009aa8 <tx4hex>:
    9aa8:	13 40 40 00 	MOV        R1,R2
    9aac:	10 43 00 00 	AND        $-65536,R2
    9ab0:	78 88 00 04 	BZ         @0x00009ab8    // 9ab8 <tx4hex+0x10>
    9ab4:	78 83 f4 28 	BRA        @0x00008ee0    // 8ee0 <txhex>
    9ab8:	e8 0c 85 00 	SUB        $12,SP         | SW         R0,(SP)
    9abc:	ad 04 b5 08 	SW         R5,$4(SP)      | SW         R6,$8(SP)
    9ac0:	33 40 40 00 	MOV        R1,R6
    9ac4:	2e 00 00 0c 	LDI        $12,R5
    9ac8:	0b 41 80 00 	MOV        R6,R1
    9acc:	09 c5 40 00 	ASR        R5,R1
    9ad0:	89 0f 8b 0a 	AND        $15,R1         | CMP        $10,R1
    9ad4:	78 90 00 08 	BLT        @0x00009ae0    // 9ae0 <tx4hex+0x38>
    9ad8:	08 80 00 37 	ADD        $55,R1
    9adc:	78 80 00 04 	BRA        @0x00009ae4    // 9ae4 <tx4hex+0x3c>
    9ae0:	08 80 00 30 	ADD        $48,R1
    9ae4:	87 fa fc f8 	JSR        0x00008e3c     // 8e3c <txchr>
    9ae8:	00 00 8e 3c 
    9aec:	aa 7c ab 7c 	ADD        $-4,R5         | CMP        $-4,R5
    9af0:	78 ab ff d4 	BNZ        @0x00009ac8    // 9ac8 <tx4hex+0x20>
    9af4:	84 00 ac 04 	LW         (SP),R0        | LW         4(SP),R5
    9af8:	b4 08 ea 0c 	LW         8(SP),R6       | ADD        $12,SP
    9afc:	7b 40 00 00 	RTN

00009b00 <txreg>:
    9b00:	e8 08 85 00 	SUB        $8,SP          | SW         R0,(SP)
    9b04:	ad 04 af 90 	SW         R5,$4(SP)      | MOV        R2,R5
    9b08:	87 fa fc f8 	JSR        0x00008ea8     // 8ea8 <txstr>
    9b0c:	00 00 8e a8 
    9b10:	0a 01 00 00 	LDI        0x0000b400,R1  // b400 <entry+0x156c>
    9b14:	0a 40 b4 00 
    9b18:	87 fa fc f8 	JSR        0x00008ea8     // 8ea8 <txstr>
    9b1c:	00 00 8e a8 
    9b20:	0b 41 40 00 	MOV        R5,R1
    9b24:	87 fa fc f8 	JSR        0x00008ee0     // 8ee0 <txhex>
    9b28:	00 00 8e e0 
    9b2c:	0a 01 00 00 	LDI        0x0000b3e4,R1  // b3e4 <entry+0x1550>
    9b30:	0a 40 b3 e4 
    9b34:	84 00 ac 04 	LW         (SP),R0        | LW         4(SP),R5
    9b38:	68 80 00 08 	ADD        $8,SP
    9b3c:	78 83 f3 68 	BRA        @0x00008ea8    // 8ea8 <txstr>

00009b40 <save_context>:
    9b40:	e8 04 ad 00 	SUB        $4,SP          | SW         R5,(SP)
    9b44:	13 40 20 00 	MOV        uR0,R2
    9b48:	1b 40 60 00 	MOV        uR1,R3
    9b4c:	23 40 a0 00 	MOV        uR2,R4
    9b50:	2b 40 e0 00 	MOV        uR3,R5
    9b54:	14 c4 40 00 	SW         R2,(R1)
    9b58:	1c c4 40 04 	SW         R3,$4(R1)
    9b5c:	24 c4 40 08 	SW         R4,$8(R1)
    9b60:	2c c4 40 0c 	SW         R5,$12(R1)
    9b64:	13 41 20 00 	MOV        uR4,R2
    9b68:	1b 41 60 00 	MOV        uR5,R3
    9b6c:	23 41 a0 00 	MOV        uR6,R4
    9b70:	2b 41 e0 00 	MOV        uR7,R5
    9b74:	14 c4 40 10 	SW         R2,$16(R1)
    9b78:	1c c4 40 14 	SW         R3,$20(R1)
    9b7c:	24 c4 40 18 	SW         R4,$24(R1)
    9b80:	2c c4 40 1c 	SW         R5,$28(R1)
    9b84:	13 42 20 00 	MOV        uR8,R2
    9b88:	1b 42 60 00 	MOV        uR9,R3
    9b8c:	23 42 a0 00 	MOV        uR10,R4
    9b90:	2b 42 e0 00 	MOV        uR11,R5
    9b94:	14 c4 40 20 	SW         R2,$32(R1)
    9b98:	1c c4 40 24 	SW         R3,$36(R1)
    9b9c:	24 c4 40 28 	SW         R4,$40(R1)
    9ba0:	2c c4 40 2c 	SW         R5,$44(R1)
    9ba4:	13 43 20 00 	MOV        uR12,R2
    9ba8:	1b 43 60 00 	MOV        uSP,R3
    9bac:	23 43 a0 00 	MOV        uCC,R4
    9bb0:	2b 43 e0 00 	MOV        uPC,R5
    9bb4:	14 c4 40 30 	SW         R2,$48(R1)
    9bb8:	1c c4 40 34 	SW         R3,$52(R1)
    9bbc:	24 c4 40 38 	SW         R4,$56(R1)
    9bc0:	2c c4 40 3c 	SW         R5,$60(R1)
    9bc4:	ac 00 ea 04 	LW         (SP),R5        | ADD        $4,SP
    9bc8:	7b 40 00 00 	RTN

00009bcc <test_fails>:
    9bcc:	68 00 00 50 	SUB        $80,SP
    9bd0:	04 c7 40 40 	SW         R0,$64(SP)
    9bd4:	2c c7 40 44 	SW         R5,$68(SP)
    9bd8:	34 c7 40 48 	SW         R6,$72(SP)
    9bdc:	3c c7 40 4c 	SW         R7,$76(SP)
    9be0:	33 40 40 00 	MOV        R1,R6
    9be4:	3b 40 80 00 	MOV        R2,R7
    9be8:	02 00 00 11 	LDI        0x88000004,R0  // 88000004 <_top_of_stack+0x87ff0004>
    9bec:	02 40 00 04 
    9bf0:	04 c0 10 00 	SW         R0,($4096)
    9bf4:	2c 80 40 00 	LW         ($16384),R5
    9bf8:	0b 43 40 00 	MOV        SP,R1
    9bfc:	87 fa fc f8 	JSR        0x00009b40     // 9b40 <save_context>
    9c00:	00 00 9b 40 
    9c04:	84 04 85 b8 	LW         4(SP),R0       | SW         R0,(R7)
    9c08:	04 87 40 38 	LW         56(SP),R0
    9c0c:	04 c5 c0 04 	SW         R0,$4(R7)
    9c10:	04 87 40 3c 	LW         60(SP),R0
    9c14:	04 c5 c0 08 	SW         R0,$8(R7)
    9c18:	0a 01 00 00 	LDI        0x0000b3ec,R1  // b3ec <entry+0x1558>
    9c1c:	0a 40 b3 ec 
    9c20:	87 fa fc f8 	JSR        0x00008ea8     // 8ea8 <txstr>
    9c24:	00 00 8e a8 
    9c28:	0a 01 00 00 	LDI        0x0000b3f8,R1  // b3f8 <entry+0x1564>
    9c2c:	0a 40 b3 f8 
    9c30:	87 fa fc f8 	JSR        0x00008ea8     // 8ea8 <txstr>
    9c34:	00 00 8e a8 
    9c38:	0b 41 80 00 	MOV        R6,R1
    9c3c:	87 fa fc f8 	JSR        0x00008ee0     // 8ee0 <txhex>
    9c40:	00 00 8e e0 
    9c44:	0a 01 00 00 	LDI        0x0000b404,R1  // b404 <entry+0x1570>
    9c48:	0a 40 b4 04 
    9c4c:	87 fa fc f8 	JSR        0x00008ea8     // 8ea8 <txstr>
    9c50:	00 00 8e a8 
    9c54:	0b 41 40 00 	MOV        R5,R1
    9c58:	87 fa fc f8 	JSR        0x00008ee0     // 8ee0 <txhex>
    9c5c:	00 00 8e e0 
    9c60:	0a 01 00 00 	LDI        0x0000b40c,R1  // b40c <entry+0x1578>
    9c64:	0a 40 b4 0c 
    9c68:	87 fa fc f8 	JSR        0x00008ea8     // 8ea8 <txstr>
    9c6c:	00 00 8e a8 
    9c70:	0a 01 00 00 	LDI        0x0000b414,R1  // b414 <entry+0x1580>
    9c74:	0a 40 b4 14 
    9c78:	87 fa fc f8 	JSR        0x00008ea8     // 8ea8 <txstr>
    9c7c:	00 00 8e a8 
    9c80:	14 87 40 00 	LW         (SP),R2
    9c84:	0a 01 00 00 	LDI        0x0000b424,R1  // b424 <entry+0x1590>
    9c88:	0a 40 b4 24 
    9c8c:	87 fa fc f8 	JSR        0x00009b00     // 9b00 <txreg>
    9c90:	00 00 9b 00 
    9c94:	14 87 40 04 	LW         4(SP),R2
    9c98:	0a 01 00 00 	LDI        0x0000b42c,R1  // b42c <entry+0x1598>
    9c9c:	0a 40 b4 2c 
    9ca0:	87 fa fc f8 	JSR        0x00009b00     // 9b00 <txreg>
    9ca4:	00 00 9b 00 
    9ca8:	14 87 40 08 	LW         8(SP),R2
    9cac:	0a 01 00 00 	LDI        0x0000b434,R1  // b434 <entry+0x15a0>
    9cb0:	0a 40 b4 34 
    9cb4:	87 fa fc f8 	JSR        0x00009b00     // 9b00 <txreg>
    9cb8:	00 00 9b 00 
    9cbc:	14 87 40 0c 	LW         12(SP),R2
    9cc0:	0a 01 00 00 	LDI        0x0000b43c,R1  // b43c <entry+0x15a8>
    9cc4:	0a 40 b4 3c 
    9cc8:	87 fa fc f8 	JSR        0x00009b00     // 9b00 <txreg>
    9ccc:	00 00 9b 00 
    9cd0:	0a 01 00 00 	LDI        0x0000b6e4,R1  // b6e4 <entry+0x1850>
    9cd4:	0a 40 b6 e4 
    9cd8:	87 fa fc f8 	JSR        0x00008ea8     // 8ea8 <txstr>
    9cdc:	00 00 8e a8 
    9ce0:	14 87 40 10 	LW         16(SP),R2
    9ce4:	0a 01 00 00 	LDI        0x0000b444,R1  // b444 <entry+0x15b0>
    9ce8:	0a 40 b4 44 
    9cec:	87 fa fc f8 	JSR        0x00009b00     // 9b00 <txreg>
    9cf0:	00 00 9b 00 
    9cf4:	14 87 40 14 	LW         20(SP),R2
    9cf8:	0a 01 00 00 	LDI        0x0000b44c,R1  // b44c <entry+0x15b8>
    9cfc:	0a 40 b4 4c 
    9d00:	87 fa fc f8 	JSR        0x00009b00     // 9b00 <txreg>
    9d04:	00 00 9b 00 
    9d08:	14 87 40 18 	LW         24(SP),R2
    9d0c:	0a 01 00 00 	LDI        0x0000b454,R1  // b454 <entry+0x15c0>
    9d10:	0a 40 b4 54 
    9d14:	87 fa fc f8 	JSR        0x00009b00     // 9b00 <txreg>
    9d18:	00 00 9b 00 
    9d1c:	14 87 40 1c 	LW         28(SP),R2
    9d20:	0a 01 00 00 	LDI        0x0000b45c,R1  // b45c <entry+0x15c8>
    9d24:	0a 40 b4 5c 
    9d28:	87 fa fc f8 	JSR        0x00009b00     // 9b00 <txreg>
    9d2c:	00 00 9b 00 
    9d30:	0a 01 00 00 	LDI        0x0000b6e4,R1  // b6e4 <entry+0x1850>
    9d34:	0a 40 b6 e4 
    9d38:	87 fa fc f8 	JSR        0x00008ea8     // 8ea8 <txstr>
    9d3c:	00 00 8e a8 
    9d40:	14 87 40 20 	LW         32(SP),R2
    9d44:	0a 01 00 00 	LDI        0x0000b464,R1  // b464 <entry+0x15d0>
    9d48:	0a 40 b4 64 
    9d4c:	87 fa fc f8 	JSR        0x00009b00     // 9b00 <txreg>
    9d50:	00 00 9b 00 
    9d54:	14 87 40 24 	LW         36(SP),R2
    9d58:	0a 01 00 00 	LDI        0x0000b46c,R1  // b46c <entry+0x15d8>
    9d5c:	0a 40 b4 6c 
    9d60:	87 fa fc f8 	JSR        0x00009b00     // 9b00 <txreg>
    9d64:	00 00 9b 00 
    9d68:	14 87 40 28 	LW         40(SP),R2
    9d6c:	0a 01 00 00 	LDI        0x0000b474,R1  // b474 <entry+0x15e0>
    9d70:	0a 40 b4 74 
    9d74:	87 fa fc f8 	JSR        0x00009b00     // 9b00 <txreg>
    9d78:	00 00 9b 00 
    9d7c:	14 87 40 2c 	LW         44(SP),R2
    9d80:	0a 01 00 00 	LDI        0x0000b47c,R1  // b47c <entry+0x15e8>
    9d84:	0a 40 b4 7c 
    9d88:	87 fa fc f8 	JSR        0x00009b00     // 9b00 <txreg>
    9d8c:	00 00 9b 00 
    9d90:	0a 01 00 00 	LDI        0x0000b6e4,R1  // b6e4 <entry+0x1850>
    9d94:	0a 40 b6 e4 
    9d98:	87 fa fc f8 	JSR        0x00008ea8     // 8ea8 <txstr>
    9d9c:	00 00 8e a8 
    9da0:	14 87 40 30 	LW         48(SP),R2
    9da4:	0a 01 00 00 	LDI        0x0000b484,R1  // b484 <entry+0x15f0>
    9da8:	0a 40 b4 84 
    9dac:	87 fa fc f8 	JSR        0x00009b00     // 9b00 <txreg>
    9db0:	00 00 9b 00 
    9db4:	14 87 40 34 	LW         52(SP),R2
    9db8:	0a 01 00 00 	LDI        0x0000b48c,R1  // b48c <entry+0x15f8>
    9dbc:	0a 40 b4 8c 
    9dc0:	87 fa fc f8 	JSR        0x00009b00     // 9b00 <txreg>
    9dc4:	00 00 9b 00 
    9dc8:	14 87 40 38 	LW         56(SP),R2
    9dcc:	0a 01 00 00 	LDI        0x0000b494,R1  // b494 <entry+0x1600>
    9dd0:	0a 40 b4 94 
    9dd4:	87 fa fc f8 	JSR        0x00009b00     // 9b00 <txreg>
    9dd8:	00 00 9b 00 
    9ddc:	14 87 40 3c 	LW         60(SP),R2
    9de0:	0a 01 00 00 	LDI        0x0000b49c,R1  // b49c <entry+0x1608>
    9de4:	0a 40 b4 9c 
    9de8:	87 fa fc f8 	JSR        0x00009b00     // 9b00 <txreg>
    9dec:	00 00 9b 00 
    9df0:	0a 01 00 00 	LDI        0x0000b40c,R1  // b40c <entry+0x1578>
    9df4:	0a 40 b4 0c 
    9df8:	87 fa fc f8 	JSR        0x00008ea8     // 8ea8 <txstr>
    9dfc:	00 00 8e a8 
    9e00:	06 00 00 08 	LDI        $8,R0
    9e04:	04 c0 30 04 	SW         R0,($12292)
    9e08:	0c 80 30 04 	LW         ($12292),R1
    9e0c:	08 40 00 08 	AND        $8,R1
    9e10:	78 8b ff f4 	BZ         @0x00009e08    // 9e08 <test_fails+0x23c>
    9e14:	7f c0 01 ff 	NEXIT      $-1
    9e18:	70 c0 00 10 	HALT
    9e1c:	78 83 ff f8 	BRA        @0x00009e18    // 9e18 <test_fails+0x24c>

00009e20 <testid>:
    9e20:	e8 08 85 00 	SUB        $8,SP          | SW         R0,(SP)
    9e24:	2c c7 40 04 	SW         R5,$4(SP)
    9e28:	2b 40 40 00 	MOV        R1,R5
    9e2c:	87 fa fc f8 	JSR        0x00008ea8     // 8ea8 <txstr>
    9e30:	00 00 8e a8 
    9e34:	0b 41 40 00 	MOV        R5,R1
    9e38:	08 80 00 01 	ADD        $1,R1
    9e3c:	15 85 40 00 	LB         (R5),R2
    9e40:	14 00 00 00 	CMP        $0,R2
    9e44:	78 88 00 28 	BZ         @0x00009e70    // 9e70 <testid+0x50>
    9e48:	1b 40 40 00 	MOV        R1,R3
    9e4c:	98 a8 8a 01 	SUB        R5,R3          | ADD        $1,R1
    9e50:	15 84 7f ff 	LB         -1(R1),R2
    9e54:	14 00 00 00 	CMP        $0,R2
    9e58:	78 ab ff ec 	BNZ        @0x00009e48    // 9e48 <testid+0x28>
    9e5c:	ae 1f a8 98 	LDI        $31,R5         | SUB        R3,R5
    9e60:	8e 20 88 98 	LDI        $32,R1         | SUB        R3,R1
    9e64:	0c 00 00 01 	CMP        $1,R1
    9e68:	78 b0 00 08 	BGE        @0x00009e74    // 9e74 <testid+0x54>
    9e6c:	78 80 00 1c 	BRA        @0x00009e8c    // 9e8c <testid+0x6c>
    9e70:	2e 00 00 1f 	LDI        $31,R5
    9e74:	87 fa fc f8 	JSR        0x00008de0     // 8de0 <txchr.constprop.3>
    9e78:	00 00 8d e0 
    9e7c:	28 83 ff ff 	ADD        $-1,R5
    9e80:	0b 41 40 00 	MOV        R5,R1
    9e84:	8a 01 8b 01 	ADD        $1,R1          | CMP        $1,R1
    9e88:	78 b3 ff e8 	BGE        @0x00009e74    // 9e74 <testid+0x54>
    9e8c:	84 00 ac 04 	LW         (SP),R0        | LW         4(SP),R5
    9e90:	ea 08 ff 80 	ADD        $8,SP          | RTN

00009e94 <entry>:
    9e94:	68 00 04 5c 	SUB        $1116,SP
    9e98:	04 c7 44 40 	SW         R0,$1088(SP)
    9e9c:	2c c7 44 44 	SW         R5,$1092(SP)
    9ea0:	34 c7 44 48 	SW         R6,$1096(SP)
    9ea4:	3c c7 44 4c 	SW         R7,$1100(SP)
    9ea8:	44 c7 44 50 	SW         R8,$1104(SP)
    9eac:	4c c7 44 54 	SW         R9,$1108(SP)
    9eb0:	54 c7 44 58 	SW         R10,$1112(SP)
    9eb4:	32 01 00 00 	LDI        0x0000b744,R6  // b744 <testlist>
    9eb8:	32 40 b7 44 
    9ebc:	0b 41 80 00 	MOV        R6,R1
    9ec0:	13 41 80 80 	MOV        $128+R6,R2
    9ec4:	86 ff 85 88 	LDI        $-1,R0         | SW         R0,(R1)
    9ec8:	8a 04 93 88 	ADD        $4,R1          | CMP        R1,R2
    9ecc:	78 ab ff f4 	BNZ        @0x00009ec4    // 9ec4 <entry+0x30>
    9ed0:	0a 03 ff fe 	BREV       $-2,R1
    9ed4:	0c c0 40 00 	SW         R1,($16384)
    9ed8:	06 00 00 04 	LDI        $4,R0
    9edc:	04 c0 10 00 	SW         R0,($4096)
    9ee0:	0a 01 00 00 	LDI        0x0000b6e4,R1  // b6e4 <entry+0x1850>
    9ee4:	0a 40 b6 e4 
    9ee8:	87 fa fc f8 	JSR        0x00008ea8     // 8ea8 <txstr>
    9eec:	00 00 8e a8 
    9ef0:	0a 01 00 00 	LDI        0x0000b688,R1  // b688 <entry+0x17f4>
    9ef4:	0a 40 b6 88 
    9ef8:	87 fa fc f8 	JSR        0x00008ea8     // 8ea8 <txstr>
    9efc:	00 00 8e a8 
    9f00:	0a 01 00 00 	LDI        0x0000b6a0,R1  // b6a0 <entry+0x180c>
    9f04:	0a 40 b6 a0 
    9f08:	87 fa fc f8 	JSR        0x00008ea8     // 8ea8 <txstr>
    9f0c:	00 00 8e a8 
    9f10:	0a 01 00 00 	LDI        0x0000b4a4,R1  // b4a4 <entry+0x1610>
    9f14:	0a 40 b4 a4 
    9f18:	87 fa fc f8 	JSR        0x00008ea8     // 8ea8 <txstr>
    9f1c:	00 00 8e a8 
    9f20:	0a 01 00 00 	LDI        0x0000b4a5,R1  // b4a5 <entry+0x1611>
    9f24:	0a 40 b4 a5 
    9f28:	16 00 00 00 	CLR        R2
    9f2c:	92 01 8a 01 	ADD        $1,R2          | ADD        $1,R1
    9f30:	1d 84 7f ff 	LB         -1(R1),R3
    9f34:	1c 00 00 00 	CMP        $0,R3
    9f38:	78 ab ff f0 	BNZ        @0x00009f2c    // 9f2c <entry+0x98>
    9f3c:	ae 1f a8 90 	LDI        $31,R5         | SUB        R2,R5
    9f40:	8e 20 88 90 	LDI        $32,R1         | SUB        R2,R1
    9f44:	0c 00 00 01 	CMP        $1,R1
    9f48:	78 b0 00 24 	BGE        @0x00009f70    // 9f70 <entry+0xdc>
    9f4c:	2c 80 40 00 	LW         ($16384),R5
    9f50:	13 43 44 40 	MOV        $1088+SP,R2
    9f54:	0b 43 d9 e5 	MOV        0x000086ec,R1  // 86ec <sim_test>
    9f58:	87 fa fc f8 	JSR        0x00008038     // 8038 <run_test>
    9f5c:	00 00 80 38 
    9f60:	43 40 40 00 	MOV        R1,R8
    9f64:	0c 00 00 00 	CMP        $0,R1
    9f68:	78 88 00 34 	BZ         @0x00009fa0    // 9fa0 <entry+0x10c>
    9f6c:	78 80 00 1c 	BRA        @0x00009f8c    // 9f8c <entry+0xf8>
    9f70:	87 fa fc f8 	JSR        0x00008de0     // 8de0 <txchr.constprop.3>
    9f74:	00 00 8d e0 
    9f78:	28 83 ff ff 	ADD        $-1,R5
    9f7c:	0b 41 40 00 	MOV        R5,R1
    9f80:	8a 01 8b 01 	ADD        $1,R1          | CMP        $1,R1
    9f84:	78 b3 ff e8 	BGE        @0x00009f70    // 9f70 <entry+0xdc>
    9f88:	78 83 ff c0 	BRA        @0x00009f4c    // 9f4c <entry+0xb8>
    9f8c:	12 01 00 00 	LDI        0x0000b744,R2  // b744 <testlist>
    9f90:	12 40 b7 44 
    9f94:	0b 41 40 00 	MOV        R5,R1
    9f98:	87 fa fc f8 	JSR        0x00009bcc     // 9bcc <test_fails>
    9f9c:	00 00 9b cc 
    9fa0:	0b 43 a0 00 	MOV        uCC,R1
    9fa4:	08 40 9e 50 	AND        $40528,R1
    9fa8:	78 ab ff e0 	BNZ        @0x00009f8c    // 9f8c <entry+0xf8>
    9fac:	0b 43 a0 00 	MOV        uCC,R1
    9fb0:	08 40 01 00 	AND        $256,R1
    9fb4:	78 88 00 18 	BZ         @0x00009fd0    // 9fd0 <entry+0x13c>
    9fb8:	0a 01 00 00 	LDI        0x0000b6c8,R1  // b6c8 <entry+0x1834>
    9fbc:	0a 40 b6 c8 
    9fc0:	87 fa fc f8 	JSR        0x00008ea8     // 8ea8 <txstr>
    9fc4:	00 00 8e a8 
    9fc8:	c5 b0 be 01 	SW         R8,(R6)        | LDI        $1,R7
    9fcc:	78 80 00 14 	BRA        @0x00009fe4    // 9fe4 <entry+0x150>
    9fd0:	0a 01 00 00 	LDI        0x0000b6d0,R1  // b6d0 <entry+0x183c>
    9fd4:	0a 40 b6 d0 
    9fd8:	87 fa fc f8 	JSR        0x00008ea8     // 8ea8 <txstr>
    9fdc:	00 00 8e a8 
    9fe0:	3b 42 00 00 	MOV        R8,R7
    9fe4:	0a 01 00 00 	LDI        0x0000b4b8,R1  // b4b8 <entry+0x1624>
    9fe8:	0a 40 b4 b8 
    9fec:	87 fa fc f8 	JSR        0x00008ea8     // 8ea8 <txstr>
    9ff0:	00 00 8e a8 
    9ff4:	0a 01 00 00 	LDI        0x0000b4b9,R1  // b4b9 <entry+0x1625>
    9ff8:	0a 40 b4 b9 
    9ffc:	c2 01 8a 01 	ADD        $1,R8          | ADD        $1,R1
    a000:	15 84 7f ff 	LB         -1(R1),R2
    a004:	14 00 00 00 	CMP        $0,R2
    a008:	78 ab ff f0 	BNZ        @0x00009ffc    // 9ffc <entry+0x168>
    a00c:	ae 1f a8 c0 	LDI        $31,R5         | SUB        R8,R5
    a010:	8e 20 88 c0 	LDI        $32,R1         | SUB        R8,R1
    a014:	0c 00 00 01 	CMP        $1,R1
    a018:	78 b0 00 24 	BGE        @0x0000a040    // a040 <entry+0x1ac>
    a01c:	2c 80 40 00 	LW         ($16384),R5
    a020:	13 43 44 40 	MOV        $1088+SP,R2
    a024:	0b 43 d9 b3 	MOV        0x000086f4,R1  // 86f4 <cis_test>
    a028:	87 fa fc f8 	JSR        0x00008038     // 8038 <run_test>
    a02c:	00 00 80 38 
    a030:	43 40 40 00 	MOV        R1,R8
    a034:	0c 00 00 00 	CMP        $0,R1
    a038:	78 88 00 34 	BZ         @0x0000a070    // a070 <entry+0x1dc>
    a03c:	78 80 00 1c 	BRA        @0x0000a05c    // a05c <entry+0x1c8>
    a040:	87 fa fc f8 	JSR        0x00008de0     // 8de0 <txchr.constprop.3>
    a044:	00 00 8d e0 
    a048:	28 83 ff ff 	ADD        $-1,R5
    a04c:	0b 41 40 00 	MOV        R5,R1
    a050:	8a 01 8b 01 	ADD        $1,R1          | CMP        $1,R1
    a054:	78 b3 ff e8 	BGE        @0x0000a040    // a040 <entry+0x1ac>
    a058:	78 83 ff c0 	BRA        @0x0000a01c    // a01c <entry+0x188>
    a05c:	39 80 00 02 	LSL        $2,R7
    a060:	97 b0 92 b8 	MOV        R6,R2          | ADD        R7,R2
    a064:	0b 41 40 00 	MOV        R5,R1
    a068:	87 fa fc f8 	JSR        0x00009bcc     // 9bcc <test_fails>
    a06c:	00 00 9b cc 
    a070:	0b 43 a0 00 	MOV        uCC,R1
    a074:	08 40 9c 50 	AND        $40016,R1
    a078:	78 ab ff e0 	BNZ        @0x0000a05c    // a05c <entry+0x1c8>
    a07c:	0b 43 a0 00 	MOV        uCC,R1
    a080:	08 40 01 00 	AND        $256,R1
    a084:	0a 29 00 00 	LDI.NZ     0x0000b6e8,R1  // b6e8 <entry+0x1854>
    a088:	0a 68 b6 e8 
    a08c:	0a 09 00 00 	LDI.Z      0x0000b6f8,R1  // b6f8 <entry+0x1864>
    a090:	0a 48 b6 f8 
    a094:	87 fa fc f8 	JSR        0x00008ea8     // 8ea8 <txstr>
    a098:	00 00 8e a8 
    a09c:	0a 01 00 00 	LDI        0x0000b4cc,R1  // b4cc <entry+0x1638>
    a0a0:	0a 40 b4 cc 
    a0a4:	87 fa fc f8 	JSR        0x00008ea8     // 8ea8 <txstr>
    a0a8:	00 00 8e a8 
    a0ac:	0a 01 00 00 	LDI        0x0000b4cd,R1  // b4cd <entry+0x1639>
    a0b0:	0a 40 b4 cd 
    a0b4:	c2 01 8a 01 	ADD        $1,R8          | ADD        $1,R1
    a0b8:	15 84 7f ff 	LB         -1(R1),R2
    a0bc:	14 00 00 00 	CMP        $0,R2
    a0c0:	78 ab ff f0 	BNZ        @0x0000a0b4    // a0b4 <entry+0x220>
    a0c4:	ae 1f a8 c0 	LDI        $31,R5         | SUB        R8,R5
    a0c8:	8e 20 88 c0 	LDI        $32,R1         | SUB        R8,R1
    a0cc:	0c 00 00 01 	CMP        $1,R1
    a0d0:	78 b0 00 24 	BGE        @0x0000a0f8    // a0f8 <entry+0x264>
    a0d4:	2c 80 40 00 	LW         ($16384),R5
    a0d8:	13 43 44 40 	MOV        $1088+SP,R2
    a0dc:	0b 43 d8 04 	MOV        0x000080f0,R1  // 80f0 <break_one>
    a0e0:	87 fa fc f8 	JSR        0x00008038     // 8038 <run_test>
    a0e4:	00 00 80 38 
    a0e8:	43 40 40 00 	MOV        R1,R8
    a0ec:	0c 00 00 00 	CMP        $0,R1
    a0f0:	78 88 00 34 	BZ         @0x0000a128    // a128 <entry+0x294>
    a0f4:	78 80 00 1c 	BRA        @0x0000a114    // a114 <entry+0x280>
    a0f8:	87 fa fc f8 	JSR        0x00008de0     // 8de0 <txchr.constprop.3>
    a0fc:	00 00 8d e0 
    a100:	28 83 ff ff 	ADD        $-1,R5
    a104:	0b 41 40 00 	MOV        R5,R1
    a108:	8a 01 8b 01 	ADD        $1,R1          | CMP        $1,R1
    a10c:	78 b3 ff e8 	BGE        @0x0000a0f8    // a0f8 <entry+0x264>
    a110:	78 83 ff c0 	BRA        @0x0000a0d4    // a0d4 <entry+0x240>
    a114:	39 80 00 02 	LSL        $2,R7
    a118:	97 b0 92 b8 	MOV        R6,R2          | ADD        R7,R2
    a11c:	0b 41 40 00 	MOV        R5,R1
    a120:	87 fa fc f8 	JSR        0x00009bcc     // 9bcc <test_fails>
    a124:	00 00 9b cc 
    a128:	0b 43 a0 00 	MOV        uCC,R1
    a12c:	08 40 9f 50 	AND        $40784,R1
    a130:	78 ab ff e0 	BNZ        @0x0000a114    // a114 <entry+0x280>
    a134:	0b 43 40 00 	MOV        SP,R1
    a138:	87 fa fc f8 	JSR        0x00009b40     // 9b40 <save_context>
    a13c:	00 00 9b 40 
    a140:	14 87 40 3c 	LW         60(SP),R2
    a144:	0b 43 d7 eb 	MOV        0x000080f4,R1  // 80f4 <break_one+0x4>
    a148:	14 04 40 00 	CMP        R1,R2
    a14c:	78 88 00 14 	BZ         @0x0000a164    // a164 <entry+0x2d0>
    a150:	39 80 00 02 	LSL        $2,R7
    a154:	97 b0 92 b8 	MOV        R6,R2          | ADD        R7,R2
    a158:	0b 41 40 00 	MOV        R5,R1
    a15c:	87 fa fc f8 	JSR        0x00009bcc     // 9bcc <test_fails>
    a160:	00 00 9b cc 
    a164:	0b 43 a0 00 	MOV        uCC,R1
    a168:	08 40 00 80 	AND        $128,R1
    a16c:	78 8b ff e0 	BZ         @0x0000a150    // a150 <entry+0x2bc>
    a170:	0a 01 00 00 	LDI        0x0000b6c8,R1  // b6c8 <entry+0x1834>
    a174:	0a 40 b6 c8 
    a178:	87 fa fc f8 	JSR        0x00008ea8     // 8ea8 <txstr>
    a17c:	00 00 8e a8 
    a180:	4b 41 c0 00 	MOV        R7,R9
    a184:	48 80 00 01 	ADD        $1,R9
    a188:	0b 41 c0 00 	MOV        R7,R1
    a18c:	09 80 00 02 	LSL        $2,R1
    a190:	87 b0 82 88 	MOV        R6,R0          | ADD        R1,R0
    a194:	44 c4 00 00 	SW         R8,(R0)
    a198:	0a 01 00 00 	LDI        0x0000b4dc,R1  // b4dc <entry+0x1648>
    a19c:	0a 40 b4 dc 
    a1a0:	87 fa fc f8 	JSR        0x00008ea8     // 8ea8 <txstr>
    a1a4:	00 00 8e a8 
    a1a8:	0a 01 00 00 	LDI        0x0000b4dd,R1  // b4dd <entry+0x1649>
    a1ac:	0a 40 b4 dd 
    a1b0:	c2 01 8a 01 	ADD        $1,R8          | ADD        $1,R1
    a1b4:	15 84 7f ff 	LB         -1(R1),R2
    a1b8:	14 00 00 00 	CMP        $0,R2
    a1bc:	78 ab ff f0 	BNZ        @0x0000a1b0    // a1b0 <entry+0x31c>
    a1c0:	ae 1f a8 c0 	LDI        $31,R5         | SUB        R8,R5
    a1c4:	8e 20 88 c0 	LDI        $32,R1         | SUB        R8,R1
    a1c8:	0c 00 00 01 	CMP        $1,R1
    a1cc:	78 b0 00 24 	BGE        @0x0000a1f4    // a1f4 <entry+0x360>
    a1d0:	2c 80 40 00 	LW         ($16384),R5
    a1d4:	13 43 44 40 	MOV        $1088+SP,R2
    a1d8:	0b 43 d7 c8 	MOV        0x000080fc,R1  // 80fc <break_two>
    a1dc:	87 fa fc f8 	JSR        0x00008038     // 8038 <run_test>
    a1e0:	00 00 80 38 
    a1e4:	43 40 40 00 	MOV        R1,R8
    a1e8:	0c 00 00 00 	CMP        $0,R1
    a1ec:	78 88 00 34 	BZ         @0x0000a224    // a224 <entry+0x390>
    a1f0:	78 80 00 1c 	BRA        @0x0000a210    // a210 <entry+0x37c>
    a1f4:	87 fa fc f8 	JSR        0x00008de0     // 8de0 <txchr.constprop.3>
    a1f8:	00 00 8d e0 
    a1fc:	28 83 ff ff 	ADD        $-1,R5
    a200:	0b 41 40 00 	MOV        R5,R1
    a204:	8a 01 8b 01 	ADD        $1,R1          | CMP        $1,R1
    a208:	78 b3 ff e8 	BGE        @0x0000a1f4    // a1f4 <entry+0x360>
    a20c:	78 83 ff c0 	BRA        @0x0000a1d0    // a1d0 <entry+0x33c>
    a210:	49 80 00 02 	LSL        $2,R9
    a214:	97 b0 92 c8 	MOV        R6,R2          | ADD        R9,R2
    a218:	0b 41 40 00 	MOV        R5,R1
    a21c:	87 fa fc f8 	JSR        0x00009bcc     // 9bcc <test_fails>
    a220:	00 00 9b cc 
    a224:	0b 43 a0 00 	MOV        uCC,R1
    a228:	08 40 9d d0 	AND        $40400,R1
    a22c:	78 ab ff e0 	BNZ        @0x0000a210    // a210 <entry+0x37c>
    a230:	0a 01 00 00 	LDI        0x0000b6c8,R1  // b6c8 <entry+0x1834>
    a234:	0a 40 b6 c8 
    a238:	87 fa fc f8 	JSR        0x00008ea8     // 8ea8 <txstr>
    a23c:	00 00 8e a8 
    a240:	53 41 c0 00 	MOV        R7,R10
    a244:	50 80 00 02 	ADD        $2,R10
    a248:	49 80 00 02 	LSL        $2,R9
    a24c:	8f b0 8a c8 	MOV        R6,R1          | ADD        R9,R1
    a250:	44 c4 40 00 	SW         R8,(R1)
    a254:	0a 01 00 00 	LDI        0x0000b4ec,R1  // b4ec <entry+0x1658>
    a258:	0a 40 b4 ec 
    a25c:	87 fa fc f8 	JSR        0x00008ea8     // 8ea8 <txstr>
    a260:	00 00 8e a8 
    a264:	13 42 00 00 	MOV        R8,R2
    a268:	0a 01 00 00 	LDI        0x0000b4ed,R1  // b4ed <entry+0x1659>
    a26c:	0a 40 b4 ed 
    a270:	92 01 8a 01 	ADD        $1,R2          | ADD        $1,R1
    a274:	1d 84 7f ff 	LB         -1(R1),R3
    a278:	1c 00 00 00 	CMP        $0,R3
    a27c:	78 ab ff f0 	BNZ        @0x0000a270    // a270 <entry+0x3dc>
    a280:	ae 1f a8 90 	LDI        $31,R5         | SUB        R2,R5
    a284:	8e 20 88 90 	LDI        $32,R1         | SUB        R2,R1
    a288:	0c 00 00 01 	CMP        $1,R1
    a28c:	78 b0 00 30 	BGE        @0x0000a2c0    // a2c0 <entry+0x42c>
    a290:	4c 80 40 00 	LW         ($16384),R9
    a294:	13 43 44 40 	MOV        $1088+SP,R2
    a298:	0b 43 d7 9a 	MOV        0x00008104,R1  // 8104 <break_three>
    a29c:	87 fa fc f8 	JSR        0x00008038     // 8038 <run_test>
    a2a0:	00 00 80 38 
    a2a4:	0b 43 40 00 	MOV        SP,R1
    a2a8:	87 fa fc f8 	JSR        0x00009b40     // 9b40 <save_context>
    a2ac:	00 00 9b 40 
    a2b0:	0b 43 d7 94 	MOV        0x00008104,R1  // 8104 <break_three>
    a2b4:	94 3c 93 88 	LW         60(SP),R2      | CMP        R1,R2
    a2b8:	78 88 00 34 	BZ         @0x0000a2f0    // a2f0 <entry+0x45c>
    a2bc:	78 80 00 1c 	BRA        @0x0000a2dc    // a2dc <entry+0x448>
    a2c0:	87 fa fc f8 	JSR        0x00008de0     // 8de0 <txchr.constprop.3>
    a2c4:	00 00 8d e0 
    a2c8:	28 83 ff ff 	ADD        $-1,R5
    a2cc:	0b 41 40 00 	MOV        R5,R1
    a2d0:	8a 01 8b 01 	ADD        $1,R1          | CMP        $1,R1
    a2d4:	78 b3 ff e8 	BGE        @0x0000a2c0    // a2c0 <entry+0x42c>
    a2d8:	78 83 ff b4 	BRA        @0x0000a290    // a290 <entry+0x3fc>
    a2dc:	51 80 00 02 	LSL        $2,R10
    a2e0:	97 b0 92 d0 	MOV        R6,R2          | ADD        R10,R2
    a2e4:	0b 42 40 00 	MOV        R9,R1
    a2e8:	87 fa fc f8 	JSR        0x00009bcc     // 9bcc <test_fails>
    a2ec:	00 00 9b cc 
    a2f0:	0b 43 a0 00 	MOV        uCC,R1
    a2f4:	08 40 00 80 	AND        $128,R1
    a2f8:	78 8b ff e0 	BZ         @0x0000a2dc    // a2dc <entry+0x448>
    a2fc:	2b 43 a0 00 	MOV        uCC,R5
    a300:	28 40 9f 50 	AND        $40784,R5
    a304:	78 ab ff d4 	BNZ        @0x0000a2dc    // a2dc <entry+0x448>
    a308:	0a 01 00 00 	LDI        0x0000b6c8,R1  // b6c8 <entry+0x1834>
    a30c:	0a 40 b6 c8 
    a310:	87 fa fc f8 	JSR        0x00008ea8     // 8ea8 <txstr>
    a314:	00 00 8e a8 
    a318:	4b 41 c0 00 	MOV        R7,R9
    a31c:	48 80 00 03 	ADD        $3,R9
    a320:	51 80 00 02 	LSL        $2,R10
    a324:	8f b0 8a d0 	MOV        R6,R1          | ADD        R10,R1
    a328:	2c c4 40 00 	SW         R5,(R1)
    a32c:	0a 01 00 00 	LDI        0x0000b4fc,R1  // b4fc <entry+0x1668>
    a330:	0a 40 b4 fc 
    a334:	87 fa fc f8 	JSR        0x00008ea8     // 8ea8 <txstr>
    a338:	00 00 8e a8 
    a33c:	0a 01 00 00 	LDI        0x0000b4fd,R1  // b4fd <entry+0x1669>
    a340:	0a 40 b4 fd 
    a344:	c2 01 8a 01 	ADD        $1,R8          | ADD        $1,R1
    a348:	15 84 7f ff 	LB         -1(R1),R2
    a34c:	14 00 00 00 	CMP        $0,R2
    a350:	78 ab ff f0 	BNZ        @0x0000a344    // a344 <entry+0x4b0>
    a354:	ae 1f a8 c0 	LDI        $31,R5         | SUB        R8,R5
    a358:	8e 20 88 c0 	LDI        $32,R1         | SUB        R8,R1
    a35c:	0c 00 00 01 	CMP        $1,R1
    a360:	78 b0 00 24 	BGE        @0x0000a388    // a388 <entry+0x4f4>
    a364:	2c 80 40 00 	LW         ($16384),R5
    a368:	13 43 44 40 	MOV        $1088+SP,R2
    a36c:	0b 43 d7 66 	MOV        0x00008108,R1  // 8108 <early_branch_test>
    a370:	87 fa fc f8 	JSR        0x00008038     // 8038 <run_test>
    a374:	00 00 80 38 
    a378:	53 40 40 00 	MOV        R1,R10
    a37c:	0c 00 00 00 	CMP        $0,R1
    a380:	78 88 00 34 	BZ         @0x0000a3b8    // a3b8 <entry+0x524>
    a384:	78 80 00 1c 	BRA        @0x0000a3a4    // a3a4 <entry+0x510>
    a388:	87 fa fc f8 	JSR        0x00008de0     // 8de0 <txchr.constprop.3>
    a38c:	00 00 8d e0 
    a390:	28 83 ff ff 	ADD        $-1,R5
    a394:	0b 41 40 00 	MOV        R5,R1
    a398:	8a 01 8b 01 	ADD        $1,R1          | CMP        $1,R1
    a39c:	78 b3 ff e8 	BGE        @0x0000a388    // a388 <entry+0x4f4>
    a3a0:	78 83 ff c0 	BRA        @0x0000a364    // a364 <entry+0x4d0>
    a3a4:	49 80 00 02 	LSL        $2,R9
    a3a8:	97 b0 92 c8 	MOV        R6,R2          | ADD        R9,R2
    a3ac:	0b 41 40 00 	MOV        R5,R1
    a3b0:	87 fa fc f8 	JSR        0x00009bcc     // 9bcc <test_fails>
    a3b4:	00 00 9b cc 
    a3b8:	0b 43 a0 00 	MOV        uCC,R1
    a3bc:	08 40 9d 80 	AND        $40320,R1
    a3c0:	78 ab ff e0 	BNZ        @0x0000a3a4    // a3a4 <entry+0x510>
    a3c4:	0a 01 00 00 	LDI        0x0000b6c8,R1  // b6c8 <entry+0x1834>
    a3c8:	0a 40 b6 c8 
    a3cc:	87 fa fc f8 	JSR        0x00008ea8     // 8ea8 <txstr>
    a3d0:	00 00 8e a8 
    a3d4:	43 41 c0 00 	MOV        R7,R8
    a3d8:	40 80 00 04 	ADD        $4,R8
    a3dc:	49 80 00 02 	LSL        $2,R9
    a3e0:	8f b0 8a c8 	MOV        R6,R1          | ADD        R9,R1
    a3e4:	54 c4 40 00 	SW         R10,(R1)
    a3e8:	0a 01 00 00 	LDI        0x0000b510,R1  // b510 <entry+0x167c>
    a3ec:	0a 40 b5 10 
    a3f0:	87 fa fc f8 	JSR        0x00008ea8     // 8ea8 <txstr>
    a3f4:	00 00 8e a8 
    a3f8:	0a 01 00 00 	LDI        0x0000b511,R1  // b511 <entry+0x167d>
    a3fc:	0a 40 b5 11 
    a400:	d2 01 8a 01 	ADD        $1,R10         | ADD        $1,R1
    a404:	15 84 7f ff 	LB         -1(R1),R2
    a408:	14 00 00 00 	CMP        $0,R2
    a40c:	78 ab ff f0 	BNZ        @0x0000a400    // a400 <entry+0x56c>
    a410:	ae 1f a8 d0 	LDI        $31,R5         | SUB        R10,R5
    a414:	8e 20 88 d0 	LDI        $32,R1         | SUB        R10,R1
    a418:	0c 00 00 01 	CMP        $1,R1
    a41c:	78 b0 00 24 	BGE        @0x0000a444    // a444 <entry+0x5b0>
    a420:	2c 80 40 00 	LW         ($16384),R5
    a424:	13 43 44 40 	MOV        $1088+SP,R2
    a428:	0b 43 d7 59 	MOV        0x00008190,R1  // 8190 <trap_test_and>
    a42c:	87 fa fc f8 	JSR        0x00008038     // 8038 <run_test>
    a430:	00 00 80 38 
    a434:	4b 40 40 00 	MOV        R1,R9
    a438:	0c 00 00 00 	CMP        $0,R1
    a43c:	78 88 00 34 	BZ         @0x0000a474    // a474 <entry+0x5e0>
    a440:	78 80 00 1c 	BRA        @0x0000a460    // a460 <entry+0x5cc>
    a444:	87 fa fc f8 	JSR        0x00008de0     // 8de0 <txchr.constprop.3>
    a448:	00 00 8d e0 
    a44c:	28 83 ff ff 	ADD        $-1,R5
    a450:	0b 41 40 00 	MOV        R5,R1
    a454:	8a 01 8b 01 	ADD        $1,R1          | CMP        $1,R1
    a458:	78 b3 ff e8 	BGE        @0x0000a444    // a444 <entry+0x5b0>
    a45c:	78 83 ff c0 	BRA        @0x0000a420    // a420 <entry+0x58c>
    a460:	41 80 00 02 	LSL        $2,R8
    a464:	97 b0 92 c0 	MOV        R6,R2          | ADD        R8,R2
    a468:	0b 41 40 00 	MOV        R5,R1
    a46c:	87 fa fc f8 	JSR        0x00009bcc     // 9bcc <test_fails>
    a470:	00 00 9b cc 
    a474:	0b 43 a0 00 	MOV        uCC,R1
    a478:	08 40 9d 80 	AND        $40320,R1
    a47c:	78 ab ff e0 	BNZ        @0x0000a460    // a460 <entry+0x5cc>
    a480:	0b 43 a0 00 	MOV        uCC,R1
    a484:	08 40 02 00 	AND        $512,R1
    a488:	78 a8 00 14 	BNZ        @0x0000a4a0    // a4a0 <entry+0x60c>
    a48c:	41 80 00 02 	LSL        $2,R8
    a490:	97 b0 92 c0 	MOV        R6,R2          | ADD        R8,R2
    a494:	0b 41 40 00 	MOV        R5,R1
    a498:	87 fa fc f8 	JSR        0x00009bcc     // 9bcc <test_fails>
    a49c:	00 00 9b cc 
    a4a0:	0a 01 00 00 	LDI        0x0000b6c8,R1  // b6c8 <entry+0x1834>
    a4a4:	0a 40 b6 c8 
    a4a8:	87 fa fc f8 	JSR        0x00008ea8     // 8ea8 <txstr>
    a4ac:	00 00 8e a8 
    a4b0:	53 41 c0 00 	MOV        R7,R10
    a4b4:	50 80 00 05 	ADD        $5,R10
    a4b8:	41 80 00 02 	LSL        $2,R8
    a4bc:	8f b0 8a c0 	MOV        R6,R1          | ADD        R8,R1
    a4c0:	4c c4 40 00 	SW         R9,(R1)
    a4c4:	0a 01 00 00 	LDI        0x0000b520,R1  // b520 <entry+0x168c>
    a4c8:	0a 40 b5 20 
    a4cc:	87 fa fc f8 	JSR        0x00008ea8     // 8ea8 <txstr>
    a4d0:	00 00 8e a8 
    a4d4:	0a 01 00 00 	LDI        0x0000b521,R1  // b521 <entry+0x168d>
    a4d8:	0a 40 b5 21 
    a4dc:	ca 01 8a 01 	ADD        $1,R9          | ADD        $1,R1
    a4e0:	15 84 7f ff 	LB         -1(R1),R2
    a4e4:	14 00 00 00 	CMP        $0,R2
    a4e8:	78 ab ff f0 	BNZ        @0x0000a4dc    // a4dc <entry+0x648>
    a4ec:	ae 1f a8 c8 	LDI        $31,R5         | SUB        R9,R5
    a4f0:	8e 20 88 c8 	LDI        $32,R1         | SUB        R9,R1
    a4f4:	0c 00 00 01 	CMP        $1,R1
    a4f8:	78 b0 00 24 	BGE        @0x0000a520    // a520 <entry+0x68c>
    a4fc:	2c 80 40 00 	LW         ($16384),R5
    a500:	13 43 44 40 	MOV        $1088+SP,R2
    a504:	0b 43 d7 24 	MOV        0x00008198,R1  // 8198 <trap_test_clr>
    a508:	87 fa fc f8 	JSR        0x00008038     // 8038 <run_test>
    a50c:	00 00 80 38 
    a510:	43 40 40 00 	MOV        R1,R8
    a514:	0c 00 00 00 	CMP        $0,R1
    a518:	78 88 00 34 	BZ         @0x0000a550    // a550 <entry+0x6bc>
    a51c:	78 80 00 1c 	BRA        @0x0000a53c    // a53c <entry+0x6a8>
    a520:	87 fa fc f8 	JSR        0x00008de0     // 8de0 <txchr.constprop.3>
    a524:	00 00 8d e0 
    a528:	28 83 ff ff 	ADD        $-1,R5
    a52c:	0b 41 40 00 	MOV        R5,R1
    a530:	8a 01 8b 01 	ADD        $1,R1          | CMP        $1,R1
    a534:	78 b3 ff e8 	BGE        @0x0000a520    // a520 <entry+0x68c>
    a538:	78 83 ff c0 	BRA        @0x0000a4fc    // a4fc <entry+0x668>
    a53c:	51 80 00 02 	LSL        $2,R10
    a540:	97 b0 92 d0 	MOV        R6,R2          | ADD        R10,R2
    a544:	0b 41 40 00 	MOV        R5,R1
    a548:	87 fa fc f8 	JSR        0x00009bcc     // 9bcc <test_fails>
    a54c:	00 00 9b cc 
    a550:	0b 43 a0 00 	MOV        uCC,R1
    a554:	08 40 9d 80 	AND        $40320,R1
    a558:	78 ab ff e0 	BNZ        @0x0000a53c    // a53c <entry+0x6a8>
    a55c:	0b 43 a0 00 	MOV        uCC,R1
    a560:	08 40 02 00 	AND        $512,R1
    a564:	78 a8 00 14 	BNZ        @0x0000a57c    // a57c <entry+0x6e8>
    a568:	51 80 00 02 	LSL        $2,R10
    a56c:	97 b0 92 d0 	MOV        R6,R2          | ADD        R10,R2
    a570:	0b 41 40 00 	MOV        R5,R1
    a574:	87 fa fc f8 	JSR        0x00009bcc     // 9bcc <test_fails>
    a578:	00 00 9b cc 
    a57c:	0a 01 00 00 	LDI        0x0000b6c8,R1  // b6c8 <entry+0x1834>
    a580:	0a 40 b6 c8 
    a584:	87 fa fc f8 	JSR        0x00008ea8     // 8ea8 <txstr>
    a588:	00 00 8e a8 
    a58c:	4b 41 c0 00 	MOV        R7,R9
    a590:	48 80 00 06 	ADD        $6,R9
    a594:	51 80 00 02 	LSL        $2,R10
    a598:	8f b0 8a d0 	MOV        R6,R1          | ADD        R10,R1
    a59c:	44 c4 40 00 	SW         R8,(R1)
    a5a0:	0a 01 00 00 	LDI        0x0000b530,R1  // b530 <entry+0x169c>
    a5a4:	0a 40 b5 30 
    a5a8:	87 fa fc f8 	JSR        0x00008ea8     // 8ea8 <txstr>
    a5ac:	00 00 8e a8 
    a5b0:	0a 01 00 00 	LDI        0x0000b531,R1  // b531 <entry+0x169d>
    a5b4:	0a 40 b5 31 
    a5b8:	c2 01 8a 01 	ADD        $1,R8          | ADD        $1,R1
    a5bc:	15 84 7f ff 	LB         -1(R1),R2
    a5c0:	14 00 00 00 	CMP        $0,R2
    a5c4:	78 ab ff f0 	BNZ        @0x0000a5b8    // a5b8 <entry+0x724>
    a5c8:	ae 1f a8 c0 	LDI        $31,R5         | SUB        R8,R5
    a5cc:	8e 20 88 c0 	LDI        $32,R1         | SUB        R8,R1
    a5d0:	0c 00 00 01 	CMP        $1,R1
    a5d4:	78 b0 00 24 	BGE        @0x0000a5fc    // a5fc <entry+0x768>
    a5d8:	2c 80 40 00 	LW         ($16384),R5
    a5dc:	13 43 44 40 	MOV        $1088+SP,R2
    a5e0:	0b 43 d6 ef 	MOV        0x000081a0,R1  // 81a0 <overflow_test>
    a5e4:	87 fa fc f8 	JSR        0x00008038     // 8038 <run_test>
    a5e8:	00 00 80 38 
    a5ec:	43 40 40 00 	MOV        R1,R8
    a5f0:	0c 00 00 00 	CMP        $0,R1
    a5f4:	78 88 00 34 	BZ         @0x0000a62c    // a62c <entry+0x798>
    a5f8:	78 80 00 1c 	BRA        @0x0000a618    // a618 <entry+0x784>
    a5fc:	87 fa fc f8 	JSR        0x00008de0     // 8de0 <txchr.constprop.3>
    a600:	00 00 8d e0 
    a604:	28 83 ff ff 	ADD        $-1,R5
    a608:	0b 41 40 00 	MOV        R5,R1
    a60c:	8a 01 8b 01 	ADD        $1,R1          | CMP        $1,R1
    a610:	78 b3 ff e8 	BGE        @0x0000a5fc    // a5fc <entry+0x768>
    a614:	78 83 ff c0 	BRA        @0x0000a5d8    // a5d8 <entry+0x744>
    a618:	49 80 00 02 	LSL        $2,R9
    a61c:	97 b0 92 c8 	MOV        R6,R2          | ADD        R9,R2
    a620:	0b 41 40 00 	MOV        R5,R1
    a624:	87 fa fc f8 	JSR        0x00009bcc     // 9bcc <test_fails>
    a628:	00 00 9b cc 
    a62c:	0b 43 a0 00 	MOV        uCC,R1
    a630:	08 40 9d 80 	AND        $40320,R1
    a634:	78 ab ff e0 	BNZ        @0x0000a618    // a618 <entry+0x784>
    a638:	0a 01 00 00 	LDI        0x0000b6c8,R1  // b6c8 <entry+0x1834>
    a63c:	0a 40 b6 c8 
    a640:	87 fa fc f8 	JSR        0x00008ea8     // 8ea8 <txstr>
    a644:	00 00 8e a8 
    a648:	53 41 c0 00 	MOV        R7,R10
    a64c:	50 80 00 07 	ADD        $7,R10
    a650:	49 80 00 02 	LSL        $2,R9
    a654:	8f b0 8a c8 	MOV        R6,R1          | ADD        R9,R1
    a658:	44 c4 40 00 	SW         R8,(R1)
    a65c:	0a 01 00 00 	LDI        0x0000b540,R1  // b540 <entry+0x16ac>
    a660:	0a 40 b5 40 
    a664:	87 fa fc f8 	JSR        0x00008ea8     // 8ea8 <txstr>
    a668:	00 00 8e a8 
    a66c:	0a 01 00 00 	LDI        0x0000b541,R1  // b541 <entry+0x16ad>
    a670:	0a 40 b5 41 
    a674:	c2 01 8a 01 	ADD        $1,R8          | ADD        $1,R1
    a678:	15 84 7f ff 	LB         -1(R1),R2
    a67c:	14 00 00 00 	CMP        $0,R2
    a680:	78 ab ff f0 	BNZ        @0x0000a674    // a674 <entry+0x7e0>
    a684:	ae 1f a8 c0 	LDI        $31,R5         | SUB        R8,R5
    a688:	8e 20 88 c0 	LDI        $32,R1         | SUB        R8,R1
    a68c:	0c 00 00 01 	CMP        $1,R1
    a690:	78 b0 00 24 	BGE        @0x0000a6b8    // a6b8 <entry+0x824>
    a694:	2c 80 40 00 	LW         ($16384),R5
    a698:	13 43 44 40 	MOV        $1088+SP,R2
    a69c:	0b 43 d6 d4 	MOV        0x000081f0,R1  // 81f0 <carry_test>
    a6a0:	87 fa fc f8 	JSR        0x00008038     // 8038 <run_test>
    a6a4:	00 00 80 38 
    a6a8:	43 40 40 00 	MOV        R1,R8
    a6ac:	0c 00 00 00 	CMP        $0,R1
    a6b0:	78 88 00 34 	BZ         @0x0000a6e8    // a6e8 <entry+0x854>
    a6b4:	78 80 00 1c 	BRA        @0x0000a6d4    // a6d4 <entry+0x840>
    a6b8:	87 fa fc f8 	JSR        0x00008de0     // 8de0 <txchr.constprop.3>
    a6bc:	00 00 8d e0 
    a6c0:	28 83 ff ff 	ADD        $-1,R5
    a6c4:	0b 41 40 00 	MOV        R5,R1
    a6c8:	8a 01 8b 01 	ADD        $1,R1          | CMP        $1,R1
    a6cc:	78 b3 ff e8 	BGE        @0x0000a6b8    // a6b8 <entry+0x824>
    a6d0:	78 83 ff c0 	BRA        @0x0000a694    // a694 <entry+0x800>
    a6d4:	51 80 00 02 	LSL        $2,R10
    a6d8:	97 b0 92 d0 	MOV        R6,R2          | ADD        R10,R2
    a6dc:	0b 41 40 00 	MOV        R5,R1
    a6e0:	87 fa fc f8 	JSR        0x00009bcc     // 9bcc <test_fails>
    a6e4:	00 00 9b cc 
    a6e8:	0b 43 a0 00 	MOV        uCC,R1
    a6ec:	08 40 9d 80 	AND        $40320,R1
    a6f0:	78 ab ff e0 	BNZ        @0x0000a6d4    // a6d4 <entry+0x840>
    a6f4:	0a 01 00 00 	LDI        0x0000b6c8,R1  // b6c8 <entry+0x1834>
    a6f8:	0a 40 b6 c8 
    a6fc:	87 fa fc f8 	JSR        0x00008ea8     // 8ea8 <txstr>
    a700:	00 00 8e a8 
    a704:	4b 41 c0 00 	MOV        R7,R9
    a708:	48 80 00 08 	ADD        $8,R9
    a70c:	51 80 00 02 	LSL        $2,R10
    a710:	8f b0 8a d0 	MOV        R6,R1          | ADD        R10,R1
    a714:	44 c4 40 00 	SW         R8,(R1)
    a718:	0a 01 00 00 	LDI        0x0000b54c,R1  // b54c <entry+0x16b8>
    a71c:	0a 40 b5 4c 
    a720:	87 fa fc f8 	JSR        0x00008ea8     // 8ea8 <txstr>
    a724:	00 00 8e a8 
    a728:	0a 01 00 00 	LDI        0x0000b54d,R1  // b54d <entry+0x16b9>
    a72c:	0a 40 b5 4d 
    a730:	c2 01 8a 01 	ADD        $1,R8          | ADD        $1,R1
    a734:	15 84 7f ff 	LB         -1(R1),R2
    a738:	14 00 00 00 	CMP        $0,R2
    a73c:	78 ab ff f0 	BNZ        @0x0000a730    // a730 <entry+0x89c>
    a740:	ae 1f a8 c0 	LDI        $31,R5         | SUB        R8,R5
    a744:	8e 20 88 c0 	LDI        $32,R1         | SUB        R8,R1
    a748:	0c 00 00 01 	CMP        $1,R1
    a74c:	78 b0 00 24 	BGE        @0x0000a774    // a774 <entry+0x8e0>
    a750:	2c 80 40 00 	LW         ($16384),R5
    a754:	13 43 44 40 	MOV        $1088+SP,R2
    a758:	0b 43 d6 b5 	MOV        0x00008230,R1  // 8230 <loop_test>
    a75c:	87 fa fc f8 	JSR        0x00008038     // 8038 <run_test>
    a760:	00 00 80 38 
    a764:	43 40 40 00 	MOV        R1,R8
    a768:	0c 00 00 00 	CMP        $0,R1
    a76c:	78 88 00 34 	BZ         @0x0000a7a4    // a7a4 <entry+0x910>
    a770:	78 80 00 1c 	BRA        @0x0000a790    // a790 <entry+0x8fc>
    a774:	87 fa fc f8 	JSR        0x00008de0     // 8de0 <txchr.constprop.3>
    a778:	00 00 8d e0 
    a77c:	28 83 ff ff 	ADD        $-1,R5
    a780:	0b 41 40 00 	MOV        R5,R1
    a784:	8a 01 8b 01 	ADD        $1,R1          | CMP        $1,R1
    a788:	78 b3 ff e8 	BGE        @0x0000a774    // a774 <entry+0x8e0>
    a78c:	78 83 ff c0 	BRA        @0x0000a750    // a750 <entry+0x8bc>
    a790:	49 80 00 02 	LSL        $2,R9
    a794:	97 b0 92 c8 	MOV        R6,R2          | ADD        R9,R2
    a798:	0b 41 40 00 	MOV        R5,R1
    a79c:	87 fa fc f8 	JSR        0x00009bcc     // 9bcc <test_fails>
    a7a0:	00 00 9b cc 
    a7a4:	0b 43 a0 00 	MOV        uCC,R1
    a7a8:	08 40 9d 80 	AND        $40320,R1
    a7ac:	78 ab ff e0 	BNZ        @0x0000a790    // a790 <entry+0x8fc>
    a7b0:	0a 01 00 00 	LDI        0x0000b6c8,R1  // b6c8 <entry+0x1834>
    a7b4:	0a 40 b6 c8 
    a7b8:	87 fa fc f8 	JSR        0x00008ea8     // 8ea8 <txstr>
    a7bc:	00 00 8e a8 
    a7c0:	53 41 c0 00 	MOV        R7,R10
    a7c4:	50 80 00 09 	ADD        $9,R10
    a7c8:	49 80 00 02 	LSL        $2,R9
    a7cc:	8f b0 8a c8 	MOV        R6,R1          | ADD        R9,R1
    a7d0:	44 c4 40 00 	SW         R8,(R1)
    a7d4:	0a 01 00 00 	LDI        0x0000b558,R1  // b558 <entry+0x16c4>
    a7d8:	0a 40 b5 58 
    a7dc:	87 fa fc f8 	JSR        0x00008ea8     // 8ea8 <txstr>
    a7e0:	00 00 8e a8 
    a7e4:	0a 01 00 00 	LDI        0x0000b559,R1  // b559 <entry+0x16c5>
    a7e8:	0a 40 b5 59 
    a7ec:	c2 01 8a 01 	ADD        $1,R8          | ADD        $1,R1
    a7f0:	15 84 7f ff 	LB         -1(R1),R2
    a7f4:	14 00 00 00 	CMP        $0,R2
    a7f8:	78 ab ff f0 	BNZ        @0x0000a7ec    // a7ec <entry+0x958>
    a7fc:	ae 1f a8 c0 	LDI        $31,R5         | SUB        R8,R5
    a800:	8e 20 88 c0 	LDI        $32,R1         | SUB        R8,R1
    a804:	0c 00 00 01 	CMP        $1,R1
    a808:	78 b0 00 24 	BGE        @0x0000a830    // a830 <entry+0x99c>
    a80c:	2c 80 40 00 	LW         ($16384),R5
    a810:	13 43 44 40 	MOV        $1088+SP,R2
    a814:	0b 43 d6 9c 	MOV        0x00008288,R1  // 8288 <shift_test>
    a818:	87 fa fc f8 	JSR        0x00008038     // 8038 <run_test>
    a81c:	00 00 80 38 
    a820:	43 40 40 00 	MOV        R1,R8
    a824:	0c 00 00 00 	CMP        $0,R1
    a828:	78 88 00 34 	BZ         @0x0000a860    // a860 <entry+0x9cc>
    a82c:	78 80 00 1c 	BRA        @0x0000a84c    // a84c <entry+0x9b8>
    a830:	87 fa fc f8 	JSR        0x00008de0     // 8de0 <txchr.constprop.3>
    a834:	00 00 8d e0 
    a838:	28 83 ff ff 	ADD        $-1,R5
    a83c:	0b 41 40 00 	MOV        R5,R1
    a840:	8a 01 8b 01 	ADD        $1,R1          | CMP        $1,R1
    a844:	78 b3 ff e8 	BGE        @0x0000a830    // a830 <entry+0x99c>
    a848:	78 83 ff c0 	BRA        @0x0000a80c    // a80c <entry+0x978>
    a84c:	51 80 00 02 	LSL        $2,R10
    a850:	97 b0 92 d0 	MOV        R6,R2          | ADD        R10,R2
    a854:	0b 41 40 00 	MOV        R5,R1
    a858:	87 fa fc f8 	JSR        0x00009bcc     // 9bcc <test_fails>
    a85c:	00 00 9b cc 
    a860:	0b 43 a0 00 	MOV        uCC,R1
    a864:	08 40 9d 80 	AND        $40320,R1
    a868:	78 ab ff e0 	BNZ        @0x0000a84c    // a84c <entry+0x9b8>
    a86c:	0a 01 00 00 	LDI        0x0000b6c8,R1  // b6c8 <entry+0x1834>
    a870:	0a 40 b6 c8 
    a874:	87 fa fc f8 	JSR        0x00008ea8     // 8ea8 <txstr>
    a878:	00 00 8e a8 
    a87c:	4b 41 c0 00 	MOV        R7,R9
    a880:	48 80 00 0a 	ADD        $10,R9
    a884:	51 80 00 02 	LSL        $2,R10
    a888:	8f b0 8a d0 	MOV        R6,R1          | ADD        R10,R1
    a88c:	44 c4 40 00 	SW         R8,(R1)
    a890:	0a 01 00 00 	LDI        0x0000b568,R1  // b568 <entry+0x16d4>
    a894:	0a 40 b5 68 
    a898:	87 fa fc f8 	JSR        0x00008ea8     // 8ea8 <txstr>
    a89c:	00 00 8e a8 
    a8a0:	0a 01 00 00 	LDI        0x0000b569,R1  // b569 <entry+0x16d5>
    a8a4:	0a 40 b5 69 
    a8a8:	c2 01 8a 01 	ADD        $1,R8          | ADD        $1,R1
    a8ac:	15 84 7f ff 	LB         -1(R1),R2
    a8b0:	14 00 00 00 	CMP        $0,R2
    a8b4:	78 ab ff f0 	BNZ        @0x0000a8a8    // a8a8 <entry+0xa14>
    a8b8:	ae 1f a8 c0 	LDI        $31,R5         | SUB        R8,R5
    a8bc:	8e 20 88 c0 	LDI        $32,R1         | SUB        R8,R1
    a8c0:	0c 00 00 01 	CMP        $1,R1
    a8c4:	78 b0 00 24 	BGE        @0x0000a8ec    // a8ec <entry+0xa58>
    a8c8:	2c 80 40 00 	LW         ($16384),R5
    a8cc:	13 43 44 40 	MOV        $1088+SP,R2
    a8d0:	0b 43 d7 10 	MOV        0x00008514,R1  // 8514 <pipeline_test>
    a8d4:	87 fa fc f8 	JSR        0x00008038     // 8038 <run_test>
    a8d8:	00 00 80 38 
    a8dc:	43 40 40 00 	MOV        R1,R8
    a8e0:	0c 00 00 00 	CMP        $0,R1
    a8e4:	78 88 00 34 	BZ         @0x0000a91c    // a91c <entry+0xa88>
    a8e8:	78 80 00 1c 	BRA        @0x0000a908    // a908 <entry+0xa74>
    a8ec:	87 fa fc f8 	JSR        0x00008de0     // 8de0 <txchr.constprop.3>
    a8f0:	00 00 8d e0 
    a8f4:	28 83 ff ff 	ADD        $-1,R5
    a8f8:	0b 41 40 00 	MOV        R5,R1
    a8fc:	8a 01 8b 01 	ADD        $1,R1          | CMP        $1,R1
    a900:	78 b3 ff e8 	BGE        @0x0000a8ec    // a8ec <entry+0xa58>
    a904:	78 83 ff c0 	BRA        @0x0000a8c8    // a8c8 <entry+0xa34>
    a908:	49 80 00 02 	LSL        $2,R9
    a90c:	97 b0 92 c8 	MOV        R6,R2          | ADD        R9,R2
    a910:	0b 41 40 00 	MOV        R5,R1
    a914:	87 fa fc f8 	JSR        0x00009bcc     // 9bcc <test_fails>
    a918:	00 00 9b cc 
    a91c:	0b 43 a0 00 	MOV        uCC,R1
    a920:	08 40 9d 80 	AND        $40320,R1
    a924:	78 ab ff e0 	BNZ        @0x0000a908    // a908 <entry+0xa74>
    a928:	0a 01 00 00 	LDI        0x0000b6c8,R1  // b6c8 <entry+0x1834>
    a92c:	0a 40 b6 c8 
    a930:	87 fa fc f8 	JSR        0x00008ea8     // 8ea8 <txstr>
    a934:	00 00 8e a8 
    a938:	53 41 c0 00 	MOV        R7,R10
    a93c:	50 80 00 0b 	ADD        $11,R10
    a940:	49 80 00 02 	LSL        $2,R9
    a944:	8f b0 8a c8 	MOV        R6,R1          | ADD        R9,R1
    a948:	44 c4 40 00 	SW         R8,(R1)
    a94c:	0a 01 00 00 	LDI        0x0000b564,R1  // b564 <entry+0x16d0>
    a950:	0a 40 b5 64 
    a954:	87 fa fc f8 	JSR        0x00008ea8     // 8ea8 <txstr>
    a958:	00 00 8e a8 
    a95c:	0a 01 00 00 	LDI        0x0000b565,R1  // b565 <entry+0x16d1>
    a960:	0a 40 b5 65 
    a964:	c2 01 8a 01 	ADD        $1,R8          | ADD        $1,R1
    a968:	15 84 7f ff 	LB         -1(R1),R2
    a96c:	14 00 00 00 	CMP        $0,R2
    a970:	78 ab ff f0 	BNZ        @0x0000a964    // a964 <entry+0xad0>
    a974:	ae 1f a8 c0 	LDI        $31,R5         | SUB        R8,R5
    a978:	8e 20 88 c0 	LDI        $32,R1         | SUB        R8,R1
    a97c:	0c 00 00 01 	CMP        $1,R1
    a980:	78 b0 00 24 	BGE        @0x0000a9a8    // a9a8 <entry+0xb14>
    a984:	2c 80 40 00 	LW         ($16384),R5
    a988:	13 43 44 40 	MOV        $1088+SP,R2
    a98c:	0b 43 d6 fc 	MOV        0x00008580,R1  // 8580 <mempipe_test>
    a990:	87 fa fc f8 	JSR        0x00008038     // 8038 <run_test>
    a994:	00 00 80 38 
    a998:	43 40 40 00 	MOV        R1,R8
    a99c:	0c 00 00 00 	CMP        $0,R1
    a9a0:	78 88 00 34 	BZ         @0x0000a9d8    // a9d8 <entry+0xb44>
    a9a4:	78 80 00 1c 	BRA        @0x0000a9c4    // a9c4 <entry+0xb30>
    a9a8:	87 fa fc f8 	JSR        0x00008de0     // 8de0 <txchr.constprop.3>
    a9ac:	00 00 8d e0 
    a9b0:	28 83 ff ff 	ADD        $-1,R5
    a9b4:	0b 41 40 00 	MOV        R5,R1
    a9b8:	8a 01 8b 01 	ADD        $1,R1          | CMP        $1,R1
    a9bc:	78 b3 ff e8 	BGE        @0x0000a9a8    // a9a8 <entry+0xb14>
    a9c0:	78 83 ff c0 	BRA        @0x0000a984    // a984 <entry+0xaf0>
    a9c4:	51 80 00 02 	LSL        $2,R10
    a9c8:	97 b0 92 d0 	MOV        R6,R2          | ADD        R10,R2
    a9cc:	0b 41 40 00 	MOV        R5,R1
    a9d0:	87 fa fc f8 	JSR        0x00009bcc     // 9bcc <test_fails>
    a9d4:	00 00 9b cc 
    a9d8:	0b 43 a0 00 	MOV        uCC,R1
    a9dc:	08 40 9d 80 	AND        $40320,R1
    a9e0:	78 ab ff e0 	BNZ        @0x0000a9c4    // a9c4 <entry+0xb30>
    a9e4:	0a 01 00 00 	LDI        0x0000b6c8,R1  // b6c8 <entry+0x1834>
    a9e8:	0a 40 b6 c8 
    a9ec:	87 fa fc f8 	JSR        0x00008ea8     // 8ea8 <txstr>
    a9f0:	00 00 8e a8 
    a9f4:	4b 41 c0 00 	MOV        R7,R9
    a9f8:	48 80 00 0c 	ADD        $12,R9
    a9fc:	51 80 00 02 	LSL        $2,R10
    aa00:	8f b0 8a d0 	MOV        R6,R1          | ADD        R10,R1
    aa04:	44 c4 40 00 	SW         R8,(R1)
    aa08:	0a 01 00 00 	LDI        0x0000b578,R1  // b578 <entry+0x16e4>
    aa0c:	0a 40 b5 78 
    aa10:	87 fa fc f8 	JSR        0x00008ea8     // 8ea8 <txstr>
    aa14:	00 00 8e a8 
    aa18:	0a 01 00 00 	LDI        0x0000b579,R1  // b579 <entry+0x16e5>
    aa1c:	0a 40 b5 79 
    aa20:	c2 01 8a 01 	ADD        $1,R8          | ADD        $1,R1
    aa24:	15 84 7f ff 	LB         -1(R1),R2
    aa28:	14 00 00 00 	CMP        $0,R2
    aa2c:	78 ab ff f0 	BNZ        @0x0000aa20    // aa20 <entry+0xb8c>
    aa30:	ae 1f a8 c0 	LDI        $31,R5         | SUB        R8,R5
    aa34:	8e 20 88 c0 	LDI        $32,R1         | SUB        R8,R1
    aa38:	0c 00 00 01 	CMP        $1,R1
    aa3c:	78 b0 00 24 	BGE        @0x0000aa64    // aa64 <entry+0xbd0>
    aa40:	2c 80 40 00 	LW         ($16384),R5
    aa44:	13 43 44 40 	MOV        $1088+SP,R2
    aa48:	0b 43 d6 e0 	MOV        0x000085cc,R1  // 85cc <cexec_test>
    aa4c:	87 fa fc f8 	JSR        0x00008038     // 8038 <run_test>
    aa50:	00 00 80 38 
    aa54:	43 40 40 00 	MOV        R1,R8
    aa58:	0c 00 00 00 	CMP        $0,R1
    aa5c:	78 88 00 34 	BZ         @0x0000aa94    // aa94 <entry+0xc00>
    aa60:	78 80 00 1c 	BRA        @0x0000aa80    // aa80 <entry+0xbec>
    aa64:	87 fa fc f8 	JSR        0x00008de0     // 8de0 <txchr.constprop.3>
    aa68:	00 00 8d e0 
    aa6c:	28 83 ff ff 	ADD        $-1,R5
    aa70:	0b 41 40 00 	MOV        R5,R1
    aa74:	8a 01 8b 01 	ADD        $1,R1          | CMP        $1,R1
    aa78:	78 b3 ff e8 	BGE        @0x0000aa64    // aa64 <entry+0xbd0>
    aa7c:	78 83 ff c0 	BRA        @0x0000aa40    // aa40 <entry+0xbac>
    aa80:	49 80 00 02 	LSL        $2,R9
    aa84:	97 b0 92 c8 	MOV        R6,R2          | ADD        R9,R2
    aa88:	0b 41 40 00 	MOV        R5,R1
    aa8c:	87 fa fc f8 	JSR        0x00009bcc     // 9bcc <test_fails>
    aa90:	00 00 9b cc 
    aa94:	0b 43 a0 00 	MOV        uCC,R1
    aa98:	08 40 9d 80 	AND        $40320,R1
    aa9c:	78 ab ff e0 	BNZ        @0x0000aa80    // aa80 <entry+0xbec>
    aaa0:	0a 01 00 00 	LDI        0x0000b6c8,R1  // b6c8 <entry+0x1834>
    aaa4:	0a 40 b6 c8 
    aaa8:	87 fa fc f8 	JSR        0x00008ea8     // 8ea8 <txstr>
    aaac:	00 00 8e a8 
    aab0:	53 41 c0 00 	MOV        R7,R10
    aab4:	50 80 00 0d 	ADD        $13,R10
    aab8:	49 80 00 02 	LSL        $2,R9
    aabc:	8f b0 8a c8 	MOV        R6,R1          | ADD        R9,R1
    aac0:	44 c4 40 00 	SW         R8,(R1)
    aac4:	0a 01 00 00 	LDI        0x0000b594,R1  // b594 <entry+0x1700>
    aac8:	0a 40 b5 94 
    aacc:	87 fa fc f8 	JSR        0x00008ea8     // 8ea8 <txstr>
    aad0:	00 00 8e a8 
    aad4:	0a 01 00 00 	LDI        0x0000b595,R1  // b595 <entry+0x1701>
    aad8:	0a 40 b5 95 
    aadc:	c2 01 8a 01 	ADD        $1,R8          | ADD        $1,R1
    aae0:	15 84 7f ff 	LB         -1(R1),R2
    aae4:	14 00 00 00 	CMP        $0,R2
    aae8:	78 ab ff f0 	BNZ        @0x0000aadc    // aadc <entry+0xc48>
    aaec:	ae 1f a8 c0 	LDI        $31,R5         | SUB        R8,R5
    aaf0:	8e 20 88 c0 	LDI        $32,R1         | SUB        R8,R1
    aaf4:	0c 00 00 01 	CMP        $1,R1
    aaf8:	78 b0 00 24 	BGE        @0x0000ab20    // ab20 <entry+0xc8c>
    aafc:	2c 80 40 00 	LW         ($16384),R5
    ab00:	13 43 44 40 	MOV        $1088+SP,R2
    ab04:	0b 43 d6 b9 	MOV        0x000085ec,R1  // 85ec <nowaitpipe_test>
    ab08:	87 fa fc f8 	JSR        0x00008038     // 8038 <run_test>
    ab0c:	00 00 80 38 
    ab10:	4b 40 40 00 	MOV        R1,R9
    ab14:	0c 00 00 00 	CMP        $0,R1
    ab18:	78 88 00 34 	BZ         @0x0000ab50    // ab50 <entry+0xcbc>
    ab1c:	78 80 00 1c 	BRA        @0x0000ab3c    // ab3c <entry+0xca8>
    ab20:	87 fa fc f8 	JSR        0x00008de0     // 8de0 <txchr.constprop.3>
    ab24:	00 00 8d e0 
    ab28:	28 83 ff ff 	ADD        $-1,R5
    ab2c:	0b 41 40 00 	MOV        R5,R1
    ab30:	8a 01 8b 01 	ADD        $1,R1          | CMP        $1,R1
    ab34:	78 b3 ff e8 	BGE        @0x0000ab20    // ab20 <entry+0xc8c>
    ab38:	78 83 ff c0 	BRA        @0x0000aafc    // aafc <entry+0xc68>
    ab3c:	51 80 00 02 	LSL        $2,R10
    ab40:	97 b0 92 d0 	MOV        R6,R2          | ADD        R10,R2
    ab44:	0b 41 40 00 	MOV        R5,R1
    ab48:	87 fa fc f8 	JSR        0x00009bcc     // 9bcc <test_fails>
    ab4c:	00 00 9b cc 
    ab50:	0b 43 a0 00 	MOV        uCC,R1
    ab54:	08 40 9d 80 	AND        $40320,R1
    ab58:	78 ab ff e0 	BNZ        @0x0000ab3c    // ab3c <entry+0xca8>
    ab5c:	0a 01 00 00 	LDI        0x0000b6c8,R1  // b6c8 <entry+0x1834>
    ab60:	0a 40 b6 c8 
    ab64:	87 fa fc f8 	JSR        0x00008ea8     // 8ea8 <txstr>
    ab68:	00 00 8e a8 
    ab6c:	43 41 c0 00 	MOV        R7,R8
    ab70:	40 80 00 0e 	ADD        $14,R8
    ab74:	51 80 00 02 	LSL        $2,R10
    ab78:	8f b0 8a d0 	MOV        R6,R1          | ADD        R10,R1
    ab7c:	4c c4 40 00 	SW         R9,(R1)
    ab80:	0a 01 00 00 	LDI        0x0000b5b0,R1  // b5b0 <entry+0x171c>
    ab84:	0a 40 b5 b0 
    ab88:	87 fa fc f8 	JSR        0x00008ea8     // 8ea8 <txstr>
    ab8c:	00 00 8e a8 
    ab90:	0a 01 00 00 	LDI        0x0000b5b1,R1  // b5b1 <entry+0x171d>
    ab94:	0a 40 b5 b1 
    ab98:	ca 01 8a 01 	ADD        $1,R9          | ADD        $1,R1
    ab9c:	15 84 7f ff 	LB         -1(R1),R2
    aba0:	14 00 00 00 	CMP        $0,R2
    aba4:	78 ab ff f0 	BNZ        @0x0000ab98    // ab98 <entry+0xd04>
    aba8:	ae 1f a8 c8 	LDI        $31,R5         | SUB        R9,R5
    abac:	8e 20 88 c8 	LDI        $32,R1         | SUB        R9,R1
    abb0:	0c 00 00 01 	CMP        $1,R1
    abb4:	78 b0 00 24 	BGE        @0x0000abdc    // abdc <entry+0xd48>
    abb8:	2c 80 40 00 	LW         ($16384),R5
    abbc:	13 43 44 40 	MOV        $1088+SP,R2
    abc0:	0b 43 d6 b7 	MOV        0x000086a0,R1  // 86a0 <bcmem_test>
    abc4:	87 fa fc f8 	JSR        0x00008038     // 8038 <run_test>
    abc8:	00 00 80 38 
    abcc:	4b 40 40 00 	MOV        R1,R9
    abd0:	0c 00 00 00 	CMP        $0,R1
    abd4:	78 88 00 34 	BZ         @0x0000ac0c    // ac0c <entry+0xd78>
    abd8:	78 80 00 1c 	BRA        @0x0000abf8    // abf8 <entry+0xd64>
    abdc:	87 fa fc f8 	JSR        0x00008de0     // 8de0 <txchr.constprop.3>
    abe0:	00 00 8d e0 
    abe4:	28 83 ff ff 	ADD        $-1,R5
    abe8:	0b 41 40 00 	MOV        R5,R1
    abec:	8a 01 8b 01 	ADD        $1,R1          | CMP        $1,R1
    abf0:	78 b3 ff e8 	BGE        @0x0000abdc    // abdc <entry+0xd48>
    abf4:	78 83 ff c0 	BRA        @0x0000abb8    // abb8 <entry+0xd24>
    abf8:	41 80 00 02 	LSL        $2,R8
    abfc:	97 b0 92 c0 	MOV        R6,R2          | ADD        R8,R2
    ac00:	0b 41 40 00 	MOV        R5,R1
    ac04:	87 fa fc f8 	JSR        0x00009bcc     // 9bcc <test_fails>
    ac08:	00 00 9b cc 
    ac0c:	0b 43 a0 00 	MOV        uCC,R1
    ac10:	08 40 9d 80 	AND        $40320,R1
    ac14:	78 ab ff e0 	BNZ        @0x0000abf8    // abf8 <entry+0xd64>
    ac18:	0a 01 00 00 	LDI        0x0000b6c8,R1  // b6c8 <entry+0x1834>
    ac1c:	0a 40 b6 c8 
    ac20:	87 fa fc f8 	JSR        0x00008ea8     // 8ea8 <txstr>
    ac24:	00 00 8e a8 
    ac28:	53 41 c0 00 	MOV        R7,R10
    ac2c:	50 80 00 0f 	ADD        $15,R10
    ac30:	41 80 00 02 	LSL        $2,R8
    ac34:	8f b0 8a c0 	MOV        R6,R1          | ADD        R8,R1
    ac38:	4c c4 40 00 	SW         R9,(R1)
    ac3c:	0a 01 00 00 	LDI        0x0000b5cc,R1  // b5cc <entry+0x1738>
    ac40:	0a 40 b5 cc 
    ac44:	87 fa fc f8 	JSR        0x00008ea8     // 8ea8 <txstr>
    ac48:	00 00 8e a8 
    ac4c:	0a 01 00 00 	LDI        0x0000b5cd,R1  // b5cd <entry+0x1739>
    ac50:	0a 40 b5 cd 
    ac54:	ca 01 8a 01 	ADD        $1,R9          | ADD        $1,R1
    ac58:	15 84 7f ff 	LB         -1(R1),R2
    ac5c:	14 00 00 00 	CMP        $0,R2
    ac60:	78 ab ff f0 	BNZ        @0x0000ac54    // ac54 <entry+0xdc0>
    ac64:	ae 1f a8 c8 	LDI        $31,R5         | SUB        R9,R5
    ac68:	8e 20 88 c8 	LDI        $32,R1         | SUB        R9,R1
    ac6c:	0c 00 00 01 	CMP        $1,R1
    ac70:	78 b0 00 24 	BGE        @0x0000ac98    // ac98 <entry+0xe04>
    ac74:	2c 80 40 00 	LW         ($16384),R5
    ac78:	13 43 44 40 	MOV        $1088+SP,R2
    ac7c:	0e 00 00 00 	CLR        R1
    ac80:	87 fa fc f8 	JSR        0x00008038     // 8038 <run_test>
    ac84:	00 00 80 38 
    ac88:	43 40 40 00 	MOV        R1,R8
    ac8c:	0c 00 00 00 	CMP        $0,R1
    ac90:	78 88 00 34 	BZ         @0x0000acc8    // acc8 <entry+0xe34>
    ac94:	78 80 00 1c 	BRA        @0x0000acb4    // acb4 <entry+0xe20>
    ac98:	87 fa fc f8 	JSR        0x00008de0     // 8de0 <txchr.constprop.3>
    ac9c:	00 00 8d e0 
    aca0:	28 83 ff ff 	ADD        $-1,R5
    aca4:	0b 41 40 00 	MOV        R5,R1
    aca8:	8a 01 8b 01 	ADD        $1,R1          | CMP        $1,R1
    acac:	78 b3 ff e8 	BGE        @0x0000ac98    // ac98 <entry+0xe04>
    acb0:	78 83 ff c0 	BRA        @0x0000ac74    // ac74 <entry+0xde0>
    acb4:	51 80 00 02 	LSL        $2,R10
    acb8:	97 b0 92 d0 	MOV        R6,R2          | ADD        R10,R2
    acbc:	0b 41 40 00 	MOV        R5,R1
    acc0:	87 fa fc f8 	JSR        0x00009bcc     // 9bcc <test_fails>
    acc4:	00 00 9b cc 
    acc8:	0b 43 a0 00 	MOV        uCC,R1
    accc:	09 00 01 00 	XOR        $256,R1
    acd0:	08 40 9d 80 	AND        $40320,R1
    acd4:	78 ab ff dc 	BNZ        @0x0000acb4    // acb4 <entry+0xe20>
    acd8:	0a 01 00 00 	LDI        0x0000b6c8,R1  // b6c8 <entry+0x1834>
    acdc:	0a 40 b6 c8 
    ace0:	87 fa fc f8 	JSR        0x00008ea8     // 8ea8 <txstr>
    ace4:	00 00 8e a8 
    ace8:	4b 41 c0 00 	MOV        R7,R9
    acec:	48 80 00 10 	ADD        $16,R9
    acf0:	51 80 00 02 	LSL        $2,R10
    acf4:	8f b0 8a d0 	MOV        R6,R1          | ADD        R10,R1
    acf8:	44 c4 40 00 	SW         R8,(R1)
    acfc:	0a 01 00 00 	LDI        0x0000b5ec,R1  // b5ec <entry+0x1758>
    ad00:	0a 40 b5 ec 
    ad04:	87 fa fc f8 	JSR        0x00008ea8     // 8ea8 <txstr>
    ad08:	00 00 8e a8 
    ad0c:	0a 01 00 00 	LDI        0x0000b5ed,R1  // b5ed <entry+0x1759>
    ad10:	0a 40 b5 ed 
    ad14:	c2 01 8a 01 	ADD        $1,R8          | ADD        $1,R1
    ad18:	15 84 7f ff 	LB         -1(R1),R2
    ad1c:	14 00 00 00 	CMP        $0,R2
    ad20:	78 ab ff f0 	BNZ        @0x0000ad14    // ad14 <entry+0xe80>
    ad24:	ae 1f a8 c0 	LDI        $31,R5         | SUB        R8,R5
    ad28:	8e 20 88 c0 	LDI        $32,R1         | SUB        R8,R1
    ad2c:	0c 00 00 01 	CMP        $1,R1
    ad30:	78 b0 00 24 	BGE        @0x0000ad58    // ad58 <entry+0xec4>
    ad34:	2c 80 40 00 	LW         ($16384),R5
    ad38:	13 43 44 40 	MOV        $1088+SP,R2
    ad3c:	0b 43 d6 69 	MOV        0x000086e4,R1  // 86e4 <ill_test>
    ad40:	87 fa fc f8 	JSR        0x00008038     // 8038 <run_test>
    ad44:	00 00 80 38 
    ad48:	43 40 40 00 	MOV        R1,R8
    ad4c:	0c 00 00 00 	CMP        $0,R1
    ad50:	78 88 00 34 	BZ         @0x0000ad88    // ad88 <entry+0xef4>
    ad54:	78 80 00 1c 	BRA        @0x0000ad74    // ad74 <entry+0xee0>
    ad58:	87 fa fc f8 	JSR        0x00008de0     // 8de0 <txchr.constprop.3>
    ad5c:	00 00 8d e0 
    ad60:	28 83 ff ff 	ADD        $-1,R5
    ad64:	0b 41 40 00 	MOV        R5,R1
    ad68:	8a 01 8b 01 	ADD        $1,R1          | CMP        $1,R1
    ad6c:	78 b3 ff e8 	BGE        @0x0000ad58    // ad58 <entry+0xec4>
    ad70:	78 83 ff c0 	BRA        @0x0000ad34    // ad34 <entry+0xea0>
    ad74:	49 80 00 02 	LSL        $2,R9
    ad78:	97 b0 92 c8 	MOV        R6,R2          | ADD        R9,R2
    ad7c:	0b 41 40 00 	MOV        R5,R1
    ad80:	87 fa fc f8 	JSR        0x00009bcc     // 9bcc <test_fails>
    ad84:	00 00 9b cc 
    ad88:	0b 43 a0 00 	MOV        uCC,R1
    ad8c:	08 40 9c 80 	AND        $40064,R1
    ad90:	78 ab ff e0 	BNZ        @0x0000ad74    // ad74 <entry+0xee0>
    ad94:	0b 43 40 00 	MOV        SP,R1
    ad98:	87 fa fc f8 	JSR        0x00009b40     // 9b40 <save_context>
    ad9c:	00 00 9b 40 
    ada0:	0b 43 d6 50 	MOV        0x000086e4,R1  // 86e4 <ill_test>
    ada4:	94 3c 93 88 	LW         60(SP),R2      | CMP        R1,R2
    ada8:	78 88 00 14 	BZ         @0x0000adc0    // adc0 <entry+0xf2c>
    adac:	49 80 00 02 	LSL        $2,R9
    adb0:	97 b0 92 c8 	MOV        R6,R2          | ADD        R9,R2
    adb4:	0b 41 40 00 	MOV        R5,R1
    adb8:	87 fa fc f8 	JSR        0x00009bcc     // 9bcc <test_fails>
    adbc:	00 00 9b cc 
    adc0:	0a 01 00 00 	LDI        0x0000b6c8,R1  // b6c8 <entry+0x1834>
    adc4:	0a 40 b6 c8 
    adc8:	87 fa fc f8 	JSR        0x00008ea8     // 8ea8 <txstr>
    adcc:	00 00 8e a8 
    add0:	53 41 c0 00 	MOV        R7,R10
    add4:	50 80 00 11 	ADD        $17,R10
    add8:	49 80 00 02 	LSL        $2,R9
    addc:	8f b0 8a c8 	MOV        R6,R1          | ADD        R9,R1
    ade0:	44 c4 40 00 	SW         R8,(R1)
    ade4:	0a 01 00 00 	LDI        0x0000b608,R1  // b608 <entry+0x1774>
    ade8:	0a 40 b6 08 
    adec:	87 fa fc f8 	JSR        0x00008ea8     // 8ea8 <txstr>
    adf0:	00 00 8e a8 
    adf4:	0a 01 00 00 	LDI        0x0000b609,R1  // b609 <entry+0x1775>
    adf8:	0a 40 b6 09 
    adfc:	c2 01 8a 01 	ADD        $1,R8          | ADD        $1,R1
    ae00:	15 84 7f ff 	LB         -1(R1),R2
    ae04:	14 00 00 00 	CMP        $0,R2
    ae08:	78 ab ff f0 	BNZ        @0x0000adfc    // adfc <entry+0xf68>
    ae0c:	ae 1f a8 c0 	LDI        $31,R5         | SUB        R8,R5
    ae10:	8e 20 88 c0 	LDI        $32,R1         | SUB        R8,R1
    ae14:	0c 00 00 01 	CMP        $1,R1
    ae18:	78 b0 00 24 	BGE        @0x0000ae40    // ae40 <entry+0xfac>
    ae1c:	2c 80 40 00 	LW         ($16384),R5
    ae20:	13 43 44 40 	MOV        $1088+SP,R2
    ae24:	0b 43 d6 35 	MOV        0x000086fc,R1  // 86fc <cmpeq_test>
    ae28:	87 fa fc f8 	JSR        0x00008038     // 8038 <run_test>
    ae2c:	00 00 80 38 
    ae30:	43 40 40 00 	MOV        R1,R8
    ae34:	0c 00 00 00 	CMP        $0,R1
    ae38:	78 88 00 34 	BZ         @0x0000ae70    // ae70 <entry+0xfdc>
    ae3c:	78 80 00 1c 	BRA        @0x0000ae5c    // ae5c <entry+0xfc8>
    ae40:	87 fa fc f8 	JSR        0x00008de0     // 8de0 <txchr.constprop.3>
    ae44:	00 00 8d e0 
    ae48:	28 83 ff ff 	ADD        $-1,R5
    ae4c:	0b 41 40 00 	MOV        R5,R1
    ae50:	8a 01 8b 01 	ADD        $1,R1          | CMP        $1,R1
    ae54:	78 b3 ff e8 	BGE        @0x0000ae40    // ae40 <entry+0xfac>
    ae58:	78 83 ff c0 	BRA        @0x0000ae1c    // ae1c <entry+0xf88>
    ae5c:	51 80 00 02 	LSL        $2,R10
    ae60:	97 b0 92 d0 	MOV        R6,R2          | ADD        R10,R2
    ae64:	0b 41 40 00 	MOV        R5,R1
    ae68:	87 fa fc f8 	JSR        0x00009bcc     // 9bcc <test_fails>
    ae6c:	00 00 9b cc 
    ae70:	0b 43 a0 00 	MOV        uCC,R1
    ae74:	08 40 9d 80 	AND        $40320,R1
    ae78:	78 ab ff e0 	BNZ        @0x0000ae5c    // ae5c <entry+0xfc8>
    ae7c:	0a 01 00 00 	LDI        0x0000b6c8,R1  // b6c8 <entry+0x1834>
    ae80:	0a 40 b6 c8 
    ae84:	87 fa fc f8 	JSR        0x00008ea8     // 8ea8 <txstr>
    ae88:	00 00 8e a8 
    ae8c:	4b 41 c0 00 	MOV        R7,R9
    ae90:	48 80 00 12 	ADD        $18,R9
    ae94:	51 80 00 02 	LSL        $2,R10
    ae98:	8f b0 8a d0 	MOV        R6,R1          | ADD        R10,R1
    ae9c:	44 c4 40 00 	SW         R8,(R1)
    aea0:	0a 01 00 00 	LDI        0x0000b61c,R1  // b61c <entry+0x1788>
    aea4:	0a 40 b6 1c 
    aea8:	87 fa fc f8 	JSR        0x00008ea8     // 8ea8 <txstr>
    aeac:	00 00 8e a8 
    aeb0:	0a 01 00 00 	LDI        0x0000b61d,R1  // b61d <entry+0x1789>
    aeb4:	0a 40 b6 1d 
    aeb8:	c2 01 8a 01 	ADD        $1,R8          | ADD        $1,R1
    aebc:	15 84 7f ff 	LB         -1(R1),R2
    aec0:	14 00 00 00 	CMP        $0,R2
    aec4:	78 ab ff f0 	BNZ        @0x0000aeb8    // aeb8 <entry+0x1024>
    aec8:	ae 1f a8 c0 	LDI        $31,R5         | SUB        R8,R5
    aecc:	8e 20 88 c0 	LDI        $32,R1         | SUB        R8,R1
    aed0:	0c 00 00 01 	CMP        $1,R1
    aed4:	78 b0 00 24 	BGE        @0x0000aefc    // aefc <entry+0x1068>
    aed8:	2c 80 40 00 	LW         ($16384),R5
    aedc:	13 43 44 40 	MOV        $1088+SP,R2
    aee0:	0b 43 d6 0a 	MOV        0x0000870c,R1  // 870c <cmpneq_test>
    aee4:	87 fa fc f8 	JSR        0x00008038     // 8038 <run_test>
    aee8:	00 00 80 38 
    aeec:	43 40 40 00 	MOV        R1,R8
    aef0:	0c 00 00 00 	CMP        $0,R1
    aef4:	78 88 00 34 	BZ         @0x0000af2c    // af2c <entry+0x1098>
    aef8:	78 80 00 1c 	BRA        @0x0000af18    // af18 <entry+0x1084>
    aefc:	87 fa fc f8 	JSR        0x00008de0     // 8de0 <txchr.constprop.3>
    af00:	00 00 8d e0 
    af04:	28 83 ff ff 	ADD        $-1,R5
    af08:	0b 41 40 00 	MOV        R5,R1
    af0c:	8a 01 8b 01 	ADD        $1,R1          | CMP        $1,R1
    af10:	78 b3 ff e8 	BGE        @0x0000aefc    // aefc <entry+0x1068>
    af14:	78 83 ff c0 	BRA        @0x0000aed8    // aed8 <entry+0x1044>
    af18:	49 80 00 02 	LSL        $2,R9
    af1c:	97 b0 92 c8 	MOV        R6,R2          | ADD        R9,R2
    af20:	0b 41 40 00 	MOV        R5,R1
    af24:	87 fa fc f8 	JSR        0x00009bcc     // 9bcc <test_fails>
    af28:	00 00 9b cc 
    af2c:	0b 43 a0 00 	MOV        uCC,R1
    af30:	08 40 9d 80 	AND        $40320,R1
    af34:	78 ab ff e0 	BNZ        @0x0000af18    // af18 <entry+0x1084>
    af38:	0a 01 00 00 	LDI        0x0000b6c8,R1  // b6c8 <entry+0x1834>
    af3c:	0a 40 b6 c8 
    af40:	87 fa fc f8 	JSR        0x00008ea8     // 8ea8 <txstr>
    af44:	00 00 8e a8 
    af48:	53 41 c0 00 	MOV        R7,R10
    af4c:	50 80 00 13 	ADD        $19,R10
    af50:	49 80 00 02 	LSL        $2,R9
    af54:	8f b0 8a c8 	MOV        R6,R1          | ADD        R9,R1
    af58:	44 c4 40 00 	SW         R8,(R1)
    af5c:	0a 01 00 00 	LDI        0x0000b630,R1  // b630 <entry+0x179c>
    af60:	0a 40 b6 30 
    af64:	87 fa fc f8 	JSR        0x00008ea8     // 8ea8 <txstr>
    af68:	00 00 8e a8 
    af6c:	0a 01 00 00 	LDI        0x0000b631,R1  // b631 <entry+0x179d>
    af70:	0a 40 b6 31 
    af74:	c2 01 8a 01 	ADD        $1,R8          | ADD        $1,R1
    af78:	15 84 7f ff 	LB         -1(R1),R2
    af7c:	14 00 00 00 	CMP        $0,R2
    af80:	78 ab ff f0 	BNZ        @0x0000af74    // af74 <entry+0x10e0>
    af84:	ae 1f a8 c0 	LDI        $31,R5         | SUB        R8,R5
    af88:	8e 20 88 c0 	LDI        $32,R1         | SUB        R8,R1
    af8c:	0c 00 00 01 	CMP        $1,R1
    af90:	78 b0 00 24 	BGE        @0x0000afb8    // afb8 <entry+0x1124>
    af94:	2c 80 40 00 	LW         ($16384),R5
    af98:	13 43 44 40 	MOV        $1088+SP,R2
    af9c:	0b 43 d5 df 	MOV        0x0000871c,R1  // 871c <ccreg_test>
    afa0:	87 fa fc f8 	JSR        0x00008038     // 8038 <run_test>
    afa4:	00 00 80 38 
    afa8:	43 40 40 00 	MOV        R1,R8
    afac:	0c 00 00 00 	CMP        $0,R1
    afb0:	78 88 00 34 	BZ         @0x0000afe8    // afe8 <entry+0x1154>
    afb4:	78 80 00 1c 	BRA        @0x0000afd4    // afd4 <entry+0x1140>
    afb8:	87 fa fc f8 	JSR        0x00008de0     // 8de0 <txchr.constprop.3>
    afbc:	00 00 8d e0 
    afc0:	28 83 ff ff 	ADD        $-1,R5
    afc4:	0b 41 40 00 	MOV        R5,R1
    afc8:	8a 01 8b 01 	ADD        $1,R1          | CMP        $1,R1
    afcc:	78 b3 ff e8 	BGE        @0x0000afb8    // afb8 <entry+0x1124>
    afd0:	78 83 ff c0 	BRA        @0x0000af94    // af94 <entry+0x1100>
    afd4:	51 80 00 02 	LSL        $2,R10
    afd8:	97 b0 92 d0 	MOV        R6,R2          | ADD        R10,R2
    afdc:	0b 41 40 00 	MOV        R5,R1
    afe0:	87 fa fc f8 	JSR        0x00009bcc     // 9bcc <test_fails>
    afe4:	00 00 9b cc 
    afe8:	0b 43 a0 00 	MOV        uCC,R1
    afec:	08 40 9d 80 	AND        $40320,R1
    aff0:	78 ab ff e0 	BNZ        @0x0000afd4    // afd4 <entry+0x1140>
    aff4:	0a 01 00 00 	LDI        0x0000b6c8,R1  // b6c8 <entry+0x1834>
    aff8:	0a 40 b6 c8 
    affc:	87 fa fc f8 	JSR        0x00008ea8     // 8ea8 <txstr>
    b000:	00 00 8e a8 
    b004:	4b 41 c0 00 	MOV        R7,R9
    b008:	48 80 00 14 	ADD        $20,R9
    b00c:	51 80 00 02 	LSL        $2,R10
    b010:	8f b0 8a d0 	MOV        R6,R1          | ADD        R10,R1
    b014:	44 c4 40 00 	SW         R8,(R1)
    b018:	0a 01 00 00 	LDI        0x0000b644,R1  // b644 <entry+0x17b0>
    b01c:	0a 40 b6 44 
    b020:	87 fa fc f8 	JSR        0x00008ea8     // 8ea8 <txstr>
    b024:	00 00 8e a8 
    b028:	0a 01 00 00 	LDI        0x0000b645,R1  // b645 <entry+0x17b1>
    b02c:	0a 40 b6 45 
    b030:	c2 01 8a 01 	ADD        $1,R8          | ADD        $1,R1
    b034:	15 84 7f ff 	LB         -1(R1),R2
    b038:	14 00 00 00 	CMP        $0,R2
    b03c:	78 ab ff f0 	BNZ        @0x0000b030    // b030 <entry+0x119c>
    b040:	ae 1f a8 c0 	LDI        $31,R5         | SUB        R8,R5
    b044:	8e 20 88 c0 	LDI        $32,R1         | SUB        R8,R1
    b048:	0c 00 00 01 	CMP        $1,R1
    b04c:	78 b0 00 24 	BGE        @0x0000b074    // b074 <entry+0x11e0>
    b050:	2c 80 40 00 	LW         ($16384),R5
    b054:	13 43 44 40 	MOV        $1088+SP,R2
    b058:	0b 43 d7 4a 	MOV        0x00008d84,R1  // 8d84 <multiarg_test>
    b05c:	87 fa fc f8 	JSR        0x00008038     // 8038 <run_test>
    b060:	00 00 80 38 
    b064:	43 40 40 00 	MOV        R1,R8
    b068:	0c 00 00 00 	CMP        $0,R1
    b06c:	78 88 00 34 	BZ         @0x0000b0a4    // b0a4 <entry+0x1210>
    b070:	78 80 00 1c 	BRA        @0x0000b090    // b090 <entry+0x11fc>
    b074:	87 fa fc f8 	JSR        0x00008de0     // 8de0 <txchr.constprop.3>
    b078:	00 00 8d e0 
    b07c:	28 83 ff ff 	ADD        $-1,R5
    b080:	0b 41 40 00 	MOV        R5,R1
    b084:	8a 01 8b 01 	ADD        $1,R1          | CMP        $1,R1
    b088:	78 b3 ff e8 	BGE        @0x0000b074    // b074 <entry+0x11e0>
    b08c:	78 83 ff c0 	BRA        @0x0000b050    // b050 <entry+0x11bc>
    b090:	49 80 00 02 	LSL        $2,R9
    b094:	97 b0 92 c8 	MOV        R6,R2          | ADD        R9,R2
    b098:	0b 41 40 00 	MOV        R5,R1
    b09c:	87 fa fc f8 	JSR        0x00009bcc     // 9bcc <test_fails>
    b0a0:	00 00 9b cc 
    b0a4:	0b 43 a0 00 	MOV        uCC,R1
    b0a8:	08 40 9d 80 	AND        $40320,R1
    b0ac:	78 ab ff e0 	BNZ        @0x0000b090    // b090 <entry+0x11fc>
    b0b0:	0a 01 00 00 	LDI        0x0000b6c8,R1  // b6c8 <entry+0x1834>
    b0b4:	0a 40 b6 c8 
    b0b8:	87 fa fc f8 	JSR        0x00008ea8     // 8ea8 <txstr>
    b0bc:	00 00 8e a8 
    b0c0:	53 41 c0 00 	MOV        R7,R10
    b0c4:	50 80 00 15 	ADD        $21,R10
    b0c8:	49 80 00 02 	LSL        $2,R9
    b0cc:	8f b0 8a c8 	MOV        R6,R1          | ADD        R9,R1
    b0d0:	44 c4 40 00 	SW         R8,(R1)
    b0d4:	0a 01 00 00 	LDI        0x0000b654,R1  // b654 <entry+0x17c0>
    b0d8:	0a 40 b6 54 
    b0dc:	87 fa fc f8 	JSR        0x00008ea8     // 8ea8 <txstr>
    b0e0:	00 00 8e a8 
    b0e4:	0a 01 00 00 	LDI        0x0000b655,R1  // b655 <entry+0x17c1>
    b0e8:	0a 40 b6 55 
    b0ec:	c2 01 8a 01 	ADD        $1,R8          | ADD        $1,R1
    b0f0:	15 84 7f ff 	LB         -1(R1),R2
    b0f4:	14 00 00 00 	CMP        $0,R2
    b0f8:	78 ab ff f0 	BNZ        @0x0000b0ec    // b0ec <entry+0x1258>
    b0fc:	ae 1f a8 c0 	LDI        $31,R5         | SUB        R8,R5
    b100:	8e 20 88 c0 	LDI        $32,R1         | SUB        R8,R1
    b104:	0c 00 00 01 	CMP        $1,R1
    b108:	78 b0 00 24 	BGE        @0x0000b130    // b130 <entry+0x129c>
    b10c:	2c 80 40 00 	LW         ($16384),R5
    b110:	13 43 44 40 	MOV        $1088+SP,R2
    b114:	0b 43 d4 d6 	MOV        0x00008470,R1  // 8470 <mpy_test>
    b118:	87 fa fc f8 	JSR        0x00008038     // 8038 <run_test>
    b11c:	00 00 80 38 
    b120:	43 40 40 00 	MOV        R1,R8
    b124:	0c 00 00 00 	CMP        $0,R1
    b128:	78 88 00 34 	BZ         @0x0000b160    // b160 <entry+0x12cc>
    b12c:	78 80 00 1c 	BRA        @0x0000b14c    // b14c <entry+0x12b8>
    b130:	87 fa fc f8 	JSR        0x00008de0     // 8de0 <txchr.constprop.3>
    b134:	00 00 8d e0 
    b138:	28 83 ff ff 	ADD        $-1,R5
    b13c:	0b 41 40 00 	MOV        R5,R1
    b140:	8a 01 8b 01 	ADD        $1,R1          | CMP        $1,R1
    b144:	78 b3 ff e8 	BGE        @0x0000b130    // b130 <entry+0x129c>
    b148:	78 83 ff c0 	BRA        @0x0000b10c    // b10c <entry+0x1278>
    b14c:	51 80 00 02 	LSL        $2,R10
    b150:	97 b0 92 d0 	MOV        R6,R2          | ADD        R10,R2
    b154:	0b 41 40 00 	MOV        R5,R1
    b158:	87 fa fc f8 	JSR        0x00009bcc     // 9bcc <test_fails>
    b15c:	00 00 9b cc 
    b160:	0b 43 a0 00 	MOV        uCC,R1
    b164:	08 40 9d 80 	AND        $40320,R1
    b168:	78 ab ff e0 	BNZ        @0x0000b14c    // b14c <entry+0x12b8>
    b16c:	0a 01 00 00 	LDI        0x0000b6c8,R1  // b6c8 <entry+0x1834>
    b170:	0a 40 b6 c8 
    b174:	87 fa fc f8 	JSR        0x00008ea8     // 8ea8 <txstr>
    b178:	00 00 8e a8 
    b17c:	4b 41 c0 00 	MOV        R7,R9
    b180:	48 80 00 16 	ADD        $22,R9
    b184:	51 80 00 02 	LSL        $2,R10
    b188:	8f b0 8a d0 	MOV        R6,R1          | ADD        R10,R1
    b18c:	44 c4 40 00 	SW         R8,(R1)
    b190:	0a 01 00 00 	LDI        0x0000b664,R1  // b664 <entry+0x17d0>
    b194:	0a 40 b6 64 
    b198:	87 fa fc f8 	JSR        0x00008ea8     // 8ea8 <txstr>
    b19c:	00 00 8e a8 
    b1a0:	0a 01 00 00 	LDI        0x0000b665,R1  // b665 <entry+0x17d1>
    b1a4:	0a 40 b6 65 
    b1a8:	c2 01 8a 01 	ADD        $1,R8          | ADD        $1,R1
    b1ac:	15 84 7f ff 	LB         -1(R1),R2
    b1b0:	14 00 00 00 	CMP        $0,R2
    b1b4:	78 ab ff f0 	BNZ        @0x0000b1a8    // b1a8 <entry+0x1314>
    b1b8:	ae 1f a8 c0 	LDI        $31,R5         | SUB        R8,R5
    b1bc:	8e 20 88 c0 	LDI        $32,R1         | SUB        R8,R1
    b1c0:	0c 00 00 01 	CMP        $1,R1
    b1c4:	78 b0 00 24 	BGE        @0x0000b1ec    // b1ec <entry+0x1358>
    b1c8:	2c 80 40 00 	LW         ($16384),R5
    b1cc:	13 43 44 40 	MOV        $1088+SP,R2
    b1d0:	0b 43 d7 86 	MOV        0x00008fec,R1  // 8fec <mpyhi_test>
    b1d4:	87 fa fc f8 	JSR        0x00008038     // 8038 <run_test>
    b1d8:	00 00 80 38 
    b1dc:	43 40 40 00 	MOV        R1,R8
    b1e0:	0c 00 00 00 	CMP        $0,R1
    b1e4:	78 88 00 34 	BZ         @0x0000b21c    // b21c <entry+0x1388>
    b1e8:	78 80 00 1c 	BRA        @0x0000b208    // b208 <entry+0x1374>
    b1ec:	87 fa fc f8 	JSR        0x00008de0     // 8de0 <txchr.constprop.3>
    b1f0:	00 00 8d e0 
    b1f4:	28 83 ff ff 	ADD        $-1,R5
    b1f8:	0b 41 40 00 	MOV        R5,R1
    b1fc:	8a 01 8b 01 	ADD        $1,R1          | CMP        $1,R1
    b200:	78 b3 ff e8 	BGE        @0x0000b1ec    // b1ec <entry+0x1358>
    b204:	78 83 ff c0 	BRA        @0x0000b1c8    // b1c8 <entry+0x1334>
    b208:	49 80 00 02 	LSL        $2,R9
    b20c:	97 b0 92 c8 	MOV        R6,R2          | ADD        R9,R2
    b210:	0b 41 40 00 	MOV        R5,R1
    b214:	87 fa fc f8 	JSR        0x00009bcc     // 9bcc <test_fails>
    b218:	00 00 9b cc 
    b21c:	0b 43 a0 00 	MOV        uCC,R1
    b220:	08 40 9d 80 	AND        $40320,R1
    b224:	78 ab ff e0 	BNZ        @0x0000b208    // b208 <entry+0x1374>
    b228:	0a 01 00 00 	LDI        0x0000b6c8,R1  // b6c8 <entry+0x1834>
    b22c:	0a 40 b6 c8 
    b230:	87 fa fc f8 	JSR        0x00008ea8     // 8ea8 <txstr>
    b234:	00 00 8e a8 
    b238:	38 80 00 17 	ADD        $23,R7
    b23c:	49 80 00 02 	LSL        $2,R9
    b240:	8f b0 8a c8 	MOV        R6,R1          | ADD        R9,R1
    b244:	44 c4 40 00 	SW         R8,(R1)
    b248:	0a 01 00 00 	LDI        0x0000b67c,R1  // b67c <entry+0x17e8>
    b24c:	0a 40 b6 7c 
    b250:	87 fa fc f8 	JSR        0x00008ea8     // 8ea8 <txstr>
    b254:	00 00 8e a8 
    b258:	0a 01 00 00 	LDI        0x0000b67d,R1  // b67d <entry+0x17e9>
    b25c:	0a 40 b6 7d 
    b260:	c2 01 8a 01 	ADD        $1,R8          | ADD        $1,R1
    b264:	15 84 7f ff 	LB         -1(R1),R2
    b268:	14 00 00 00 	CMP        $0,R2
    b26c:	78 ab ff f0 	BNZ        @0x0000b260    // b260 <entry+0x13cc>
    b270:	ae 1f a8 c0 	LDI        $31,R5         | SUB        R8,R5
    b274:	8e 20 88 c0 	LDI        $32,R1         | SUB        R8,R1
    b278:	0c 00 00 01 	CMP        $1,R1
    b27c:	78 b0 00 14 	BGE        @0x0000b294    // b294 <entry+0x1400>
    b280:	0b 43 80 00 	MOV        CC,R1
    b284:	12 00 00 04 	BREV       $4,R2
    b288:	08 44 80 00 	AND        R2,R1
    b28c:	78 88 00 20 	BZ         @0x0000b2b0    // b2b0 <entry+0x141c>
    b290:	78 80 00 30 	BRA        @0x0000b2c4    // b2c4 <entry+0x1430>
    b294:	87 fa fc f8 	JSR        0x00008de0     // 8de0 <txchr.constprop.3>
    b298:	00 00 8d e0 
    b29c:	28 83 ff ff 	ADD        $-1,R5
    b2a0:	0b 41 40 00 	MOV        R5,R1
    b2a4:	8a 01 8b 01 	ADD        $1,R1          | CMP        $1,R1
    b2a8:	78 b3 ff e8 	BGE        @0x0000b294    // b294 <entry+0x1400>
    b2ac:	78 83 ff d0 	BRA        @0x0000b280    // b280 <entry+0x13ec>
    b2b0:	0a 01 00 00 	LDI        0x0000b704,R1  // b704 <entry+0x1870>
    b2b4:	0a 40 b7 04 
    b2b8:	87 fa fc f8 	JSR        0x00008ea8     // 8ea8 <txstr>
    b2bc:	00 00 8e a8 
    b2c0:	78 80 00 3c 	BRA        @0x0000b300    // b300 <entry+0x146c>
    b2c4:	2c 80 40 00 	LW         ($16384),R5
    b2c8:	13 43 44 40 	MOV        $1088+SP,R2
    b2cc:	0b 43 d4 82 	MOV        0x000084d8,R1  // 84d8 <div_test>
    b2d0:	87 fa fc f8 	JSR        0x00008038     // 8038 <run_test>
    b2d4:	00 00 80 38 
    b2d8:	0c 00 00 00 	CMP        $0,R1
    b2dc:	78 88 00 14 	BZ         @0x0000b2f4    // b2f4 <entry+0x1460>
    b2e0:	39 80 00 02 	LSL        $2,R7
    b2e4:	97 b0 92 b8 	MOV        R6,R2          | ADD        R7,R2
    b2e8:	0b 41 40 00 	MOV        R5,R1
    b2ec:	87 fa fc f8 	JSR        0x00009bcc     // 9bcc <test_fails>
    b2f0:	00 00 9b cc 
    b2f4:	0b 43 a0 00 	MOV        uCC,R1
    b2f8:	08 40 9d 80 	AND        $40320,R1
    b2fc:	78 ab ff e0 	BNZ        @0x0000b2e0    // b2e0 <entry+0x144c>
    b300:	0a 01 00 00 	LDI        0x0000b6c8,R1  // b6c8 <entry+0x1834>
    b304:	0a 40 b6 c8 
    b308:	87 fa fc f8 	JSR        0x00008ea8     // 8ea8 <txstr>
    b30c:	00 00 8e a8 
    b310:	39 80 00 02 	LSL        $2,R7
    b314:	b2 b8 8e 00 	ADD        R7,R6          | CLR        R1
    b318:	0c c5 80 00 	SW         R1,(R6)
    b31c:	0a 01 00 00 	LDI        0x0000b6e4,R1  // b6e4 <entry+0x1850>
    b320:	0a 40 b6 e4 
    b324:	87 fa fc f8 	JSR        0x00008ea8     // 8ea8 <txstr>
    b328:	00 00 8e a8 
    b32c:	0a 01 00 00 	LDI        0x0000b6a0,R1  // b6a0 <entry+0x180c>
    b330:	0a 40 b6 a0 
    b334:	87 fa fc f8 	JSR        0x00008ea8     // 8ea8 <txstr>
    b338:	00 00 8e a8 
    b33c:	0a 01 00 00 	LDI        0x0000b720,R1  // b720 <entry+0x188c>
    b340:	0a 40 b7 20 
    b344:	87 fa fc f8 	JSR        0x00008ea8     // 8ea8 <txstr>
    b348:	00 00 8e a8 
    b34c:	0e 00 00 08 	LDI        $8,R1
    b350:	0c c0 30 04 	SW         R1,($12292)
    b354:	0c 80 30 04 	LW         ($12292),R1
    b358:	08 40 00 08 	AND        $8,R1
    b35c:	78 8b ff f4 	BZ         @0x0000b354    // b354 <entry+0x14c0>
    b360:	0e 00 c3 50 	LDI        $50000,R1
    b364:	7f c0 00 00 	NOOP
    b368:	08 83 ff ff 	ADD        $-1,R1
    b36c:	78 ab ff f4 	BNZ        @0x0000b364    // b364 <entry+0x14d0>
    b370:	7f c0 01 00 	NEXIT
    b374:	70 c0 00 10 	HALT
    b378:	04 87 44 40 	LW         1088(SP),R0
    b37c:	2c 87 44 44 	LW         1092(SP),R5
    b380:	34 87 44 48 	LW         1096(SP),R6
    b384:	3c 87 44 4c 	LW         1100(SP),R7
    b388:	44 87 44 50 	LW         1104(SP),R8
    b38c:	4c 87 44 54 	LW         1108(SP),R9
    b390:	54 87 44 58 	LW         1112(SP),R10
    b394:	68 80 04 5c 	ADD        $1116,SP
    b398:	7b 40 00 00 	RTN
    b39c:	20 78 20 00 	AND.NC     $8192,R4
    b3a0:	20 3d 20 00 	SUB.NC     $-8192+R4,R4
    b3a4:	28 53 6f 66 	AND.LT     $-37018,R5
    b3a8:	74 29 20 3d 	CMP.NZ     $73789,CC
    b3ac:	20 00 00 00 	SUB        $0,R4
    b3b0:	28 48 61 72 	AND.Z      $24946,R5
    b3b4:	64 29 0d 0a 	CMP.NZ     $68874,R12
    b3b8:	00 00 00 00 	SUB        $0,R0
    b3bc:	4d 50 59 55 	SH.LT      R9,($22869)
    b3c0:	48 49 3a 20 	AND.Z      $80416,R9
    b3c4:	00 00 00 00 	SUB        $0,R0
    b3c8:	4d 50 59 53 	SH.LT      R9,($22867)
    b3cc:	48 49 3a 20 	AND.Z      $80416,R9
    b3d0:	00 00 00 00 	SUB        $0,R0
    b3d4:	4d 50 59 53 	SH.LT      R9,($22867)
    b3d8:	48 49 2d 4e 	AND.Z      $77134,R9
    b3dc:	45 47 3a 20 	SH         R8,$-1504(R12)
    b3e0:	00 00 00 00 	SUB        $0,R0
    b3e4:	20 20 20 20 	SUB.V      $8224,R4
    b3e8:	00 00 00 00 	SUB        $0,R0
    b3ec:	46 41 49 4c 	LDI        $-4110004,R8
    b3f0:	21 0d 0a 0d 	XOR.Z      $2573+R4,R4
    b3f4:	0a 00 00 00 	CLR        $0,R1
    b3f8:	42 65 74 77 	LDILO.V    $-2953+R5,R8
    b3fc:	65 65 6e 20 	SH.V       R12,$-4576(R5)
    b400:	30 78 00 00 	AND.NC     $0,R6
    b404:	20 61 6e 64 	AND.V      $93796,R4
    b408:	20 30 78 00 	SUB.GE     $30720,R4
    b40c:	0d 0a 0d 0a 	LH.Z       ($-127734),R1
    b410:	00 00 00 00 	SUB        $0,R0
    b414:	43 6f 72 65 	MOV.NZ     $-3483+uSP,uR8
    b418:	2d 64 75 6d 	SH.V       R5,$-2707(R1)
    b41c:	70 3a 0d 0a 	SUB.NC     $-127734,CC
    b420:	00 00 00 00 	SUB        $0,R0
    b424:	75 52 30 20 	SH.LT      CC,($-118752)
    b428:	3a 20 00 00 	CLR.V      $0,R7
    b42c:	75 52 31 20 	SH.LT      CC,($-118496)
    b430:	3a 20 00 00 	CLR.V      $0,R7
    b434:	75 52 32 20 	SH.LT      CC,($-118240)
    b438:	3a 20 00 00 	CLR.V      $0,R7
    b43c:	75 52 33 20 	SH.LT      CC,($-117984)
    b440:	3a 20 00 00 	CLR.V      $0,R7
    b444:	75 52 34 20 	SH.LT      CC,($-117728)
    b448:	3a 20 00 00 	CLR.V      $0,R7
    b44c:	75 52 35 20 	SH.LT      CC,($-117472)
    b450:	3a 20 00 00 	CLR.V      $0,R7
    b454:	75 52 36 20 	SH.LT      CC,($-117216)
    b458:	3a 20 00 00 	CLR.V      $0,R7
    b45c:	75 52 37 20 	SH.LT      CC,($-116960)
    b460:	3a 20 00 00 	CLR.V      $0,R7
    b464:	75 52 38 20 	SH.LT      CC,($-116704)
    b468:	3a 20 00 00 	CLR.V      $0,R7
    b46c:	75 52 39 20 	SH.LT      CC,($-116448)
    b470:	3a 20 00 00 	CLR.V      $0,R7
    b474:	75 52 31 30 	SH.LT      CC,($-118480)
    b478:	3a 20 00 00 	CLR.V      $0,R7
    b47c:	75 52 31 31 	SH.LT      CC,($-118479)
    b480:	3a 20 00 00 	CLR.V      $0,R7
    b484:	75 52 31 32 	SH.LT      CC,($-118478)
    b488:	3a 20 00 00 	CLR.V      $0,R7
    b48c:	75 53 50 20 	SH.LT      CC,($-45024)
    b490:	3a 20 00 00 	CLR.V      $0,R7
    b494:	75 43 43 20 	SH         CC,($-48352)
    b498:	3a 20 00 00 	CLR.V      $0,R7
    b49c:	75 50 43 20 	SH.LT      CC,($17184)
    b4a0:	3a 20 00 00 	CLR.V      $0,R7
    b4a4:	53 49 4d 20 	MOV.Z      $3360+R5,R10
    b4a8:	49 6e 73 74 	LSR.NZ     $-3212+R9,R9
    b4ac:	72 75 63 74 	LDILO.GE   $-7308+R5,CC
    b4b0:	69 6f 6e 73 	LSR.NZ     $-4493+SP,SP
    b4b4:	00 00 00 00 	SUB        $0,R0
    b4b8:	43 49 53 20 	MOV.Z      $-3296+R5,R8
    b4bc:	49 6e 73 74 	LSR.NZ     $-3212+R9,R9
    b4c0:	72 75 63 74 	LDILO.GE   $-7308+R5,CC
    b4c4:	69 6f 6e 73 	LSR.NZ     $-4493+SP,SP
    b4c8:	00 00 00 00 	SUB        $0,R0
    b4cc:	42 72 65 61 	LDILO.GE   $-105119,R8
    b4d0:	6b 20 74 65 	MPY.V      $29797,SP
    b4d4:	73 74 20 23 	MOV.GE     $35+uR0,uCC
    b4d8:	31 00 00 00 	XOR        $0,R6
    b4dc:	42 72 65 61 	LDILO.GE   $-105119,R8
    b4e0:	6b 20 74 65 	MPY.V      $29797,SP
    b4e4:	73 74 20 23 	MOV.GE     $35+uR0,uCC
    b4e8:	32 00 00 00 	CLR        $0,R6
    b4ec:	42 72 65 61 	LDILO.GE   $-105119,R8
    b4f0:	6b 20 74 65 	MPY.V      $29797,SP
    b4f4:	73 74 20 23 	MOV.GE     $35+uR0,uCC
    b4f8:	33 00 00 00 	MPY        $0,R6
    b4fc:	45 61 72 6c 	SH.V       R8,($94828)
    b500:	79 20 42 72 	XOR.V      $17010,PC
    b504:	61 6e 63 68 	LSR.NZ     $-7320+R9,R12
    b508:	20 74 65 73 	AND.GE     $-6797+R1,R4
    b50c:	74 00 00 00 	CMP        $0,CC
    b510:	54 72 61 70 	TST.GE     $-106128,R10
    b514:	20 74 65 73 	AND.GE     $-6797+R1,R4
    b518:	74 2f 41 4e 	CMP.NZ     $334+SP,CC
    b51c:	44 00 00 00 	CMP        $0,R8
    b520:	54 72 61 70 	TST.GE     $-106128,R10
    b524:	20 74 65 73 	AND.GE     $-6797+R1,R4
    b528:	74 2f 43 4c 	CMP.NZ     $844+SP,CC
    b52c:	52 00 00 00 	CLR        $0,R10
    b530:	4f 76 65 72 	ILL 4f766572
    b534:	66 6c 6f 77 	LDI        $-1282185,R12
    b538:	20 74 65 73 	AND.GE     $-6797+R1,R4
    b53c:	74 00 00 00 	CMP        $0,CC
    b540:	43 61 72 72 	MOV.V      $-3470+uR5,R8
    b544:	79 20 74 65 	XOR.V      $29797,PC
    b548:	73 74 00 00 	MOV.GE     R0,uCC
    b54c:	4c 6f 6f 70 	TST.NZ     $-4240+SP,R9
    b550:	20 74 65 73 	AND.GE     $-6797+R1,R4
    b554:	74 00 00 00 	CMP        $0,CC
    b558:	53 68 69 66 	MOV.NZ     $2406+uR1,R10
    b55c:	74 20 74 65 	CMP.V      $29797,CC
    b560:	73 74 00 00 	MOV.GE     R0,uCC
    b564:	4d 65 6d 2d 	SH.V       R9,$-4819(R5)
    b568:	50 69 70 65 	AND.NZ     $94309,R10
    b56c:	6c 69 6e 65 	TST.NZ     $93797,SP
    b570:	20 74 65 73 	AND.GE     $-6797+R1,R4
    b574:	74 00 00 00 	CMP        $0,CC
    b578:	43 6f 6e 64 	MOV.NZ     $3684+uSP,uR8
    b57c:	69 74 69 6f 	LSR.GE     $-5777+R1,SP
    b580:	6e 61 6c 20 	LDI        $-2003936,SP
    b584:	45 78 65 63 	SH.NC      R8,($25955)
    b588:	75 74 69 6f 	SH.GE      CC,$-5777(R1)
    b58c:	6e 20 74 65 	LDI        $2126949,SP
    b590:	73 74 00 00 	MOV.GE     R0,uCC
    b594:	4e 6f 2d 77 	LDI        $-1102473,R9
    b598:	61 69 74 69 	LSR.NZ     $95337,R12
    b59c:	6e 67 20 70 	LDI        $-1630096,SP
    b5a0:	69 70 65 6c 	LSR.GE     $25964,SP
    b5a4:	69 6e 65 20 	LSR.NZ     $-6880+R9,SP
    b5a8:	74 65 73 74 	TST.V      $-3212+R5,CC
    b5ac:	00 00 00 00 	SUB        $0,R0
    b5b0:	43 6f 6e 64 	MOV.NZ     $3684+uSP,uR8
    b5b4:	69 74 69 6f 	LSR.GE     $-5777+R1,SP
    b5b8:	6e 61 6c 20 	LDI        $-2003936,SP
    b5bc:	42 72 61 6e 	LDILO.GE   $-106130,R8
    b5c0:	63 68 69 6e 	MOV.NZ     $2414+uR1,R12
    b5c4:	67 20 74 65 	ILL 67207465
    b5c8:	73 74 00 00 	MOV.GE     R0,uCC
    b5cc:	49 6c 6c 20 	LSR.NZ     $-5088+R1,R9
    b5d0:	49 6e 73 74 	LSR.NZ     $-3212+R9,R9
    b5d4:	72 75 63 74 	LDILO.GE   $-7308+R5,CC
    b5d8:	69 6f 6e 20 	LSR.NZ     $-4576+SP,SP
    b5dc:	74 65 73 74 	TST.V      $-3212+R5,CC
    b5e0:	2c 20 4e 55 	CMP.V      $20053,R5
    b5e4:	4c 4c 20 50 	TST.Z      $-8112+R0,R9
    b5e8:	43 00 00 00 	MPY        $0,R8
    b5ec:	49 6c 6c 20 	LSR.NZ     $-5088+R1,R9
    b5f0:	49 6e 73 74 	LSR.NZ     $-3212+R9,R9
    b5f4:	72 75 63 74 	LDILO.GE   $-7308+R5,CC
    b5f8:	69 6f 6e 20 	LSR.NZ     $-4576+SP,SP
    b5fc:	74 65 73 74 	TST.V      $-3212+R5,CC
    b600:	2c 20 74 77 	CMP.V      $29815,R5
    b604:	6f 00 00 00 	ILL 6f000000
    b608:	43 6f 6d 70 	MOV.NZ     $3440+uSP,uR8
    b60c:	61 72 69 73 	LSR.GE     $-104077,R12
    b610:	6f 6e 20 74 	ILL 6f6e2074
    b614:	65 73 74 2c 	SH.GE      R12,($-35796)
    b618:	20 3d 3d 00 	SUB.NC     $-768+R4,R4
    b61c:	43 6f 6d 70 	MOV.NZ     $3440+uSP,uR8
    b620:	61 72 69 73 	LSR.GE     $-104077,R12
    b624:	6f 6e 20 74 	ILL 6f6e2074
    b628:	65 73 74 2c 	SH.GE      R12,($-35796)
    b62c:	20 21 3d 00 	SUB.V      $81152,R4
    b630:	43 43 20 52 	MOV        $82+uR12,R8
    b634:	65 67 69 73 	SH.V       R12,$-5773(SP)
    b638:	74 65 72 20 	TST.V      $-3552+R5,CC
    b63c:	74 65 73 74 	TST.V      $-3212+R5,CC
    b640:	00 00 00 00 	SUB        $0,R0
    b644:	4d 75 6c 74 	SH.GE      R9,$-5004(R5)
    b648:	69 2d 41 72 	XOR.NZ     $370+R5,SP
    b64c:	67 20 74 65 	ILL 67207465
    b650:	73 74 00 00 	MOV.GE     R0,uCC
    b654:	4d 75 6c 74 	SH.GE      R9,$-5004(R5)
    b658:	69 70 6c 79 	LSR.GE     $27769,SP
    b65c:	20 74 65 73 	AND.GE     $-6797+R1,R4
    b660:	74 00 00 00 	CMP        $0,CC
    b664:	4d 75 6c 74 	SH.GE      R9,$-5004(R5)
    b668:	69 70 6c 79 	LSR.GE     $27769,SP
    b66c:	20 48 49 2d 	AND.Z      $18733,R4
    b670:	77 6f 72 64 	LOCK       $-1084828
    b674:	20 74 65 73 	AND.GE     $-6797+R1,R4
    b678:	74 00 00 00 	CMP        $0,CC
    b67c:	44 69 76 69 	TST.NZ     $95849,R8
    b680:	64 65 20 74 	TST.V      $-8076+R4,R12
    b684:	65 73 74 00 	SH.GE      R12,($-35840)
    b688:	52 75 6e 6e 	LDILO.GE   $-4498+R5,R10
    b68c:	69 6e 67 20 	LSR.NZ     $-6368+R9,SP
    b690:	43 50 55 20 	MOV.LT     $-2784+R1,R8
    b694:	73 65 6c 66 	MOV.V      $3174+uR5,uCC
    b698:	2d 74 65 73 	SH.GE      R5,$-6797(R1)
    b69c:	74 0d 0a 00 	CMP.Z      $2560+R4,CC
    b6a0:	2d 2d 2d 2d 	LH.NZ      -4819(R4),R5
    b6a4:	2d 2d 2d 2d 	LH.NZ      -4819(R4),R5
    b6a8:	2d 2d 2d 2d 	LH.NZ      -4819(R4),R5
    b6ac:	2d 2d 2d 2d 	LH.NZ      -4819(R4),R5
    b6b0:	2d 2d 2d 2d 	LH.NZ      -4819(R4),R5
    b6b4:	2d 2d 2d 2d 	LH.NZ      -4819(R4),R5
    b6b8:	2d 2d 2d 2d 	LH.NZ      -4819(R4),R5
    b6bc:	2d 2d 2d 2d 	LH.NZ      -4819(R4),R5
    b6c0:	2d 2d 2d 0d 	LH.NZ      -4851(R4),R5
    b6c4:	0a 00 00 00 	CLR        $0,R1
    b6c8:	50 61 73 73 	AND.V      $95091,R10
    b6cc:	0d 0a 00 00 	LH.Z       ($-131072),R1
    b6d0:	49 73 20 74 	LSR.GE     $-57228,R9
    b6d4:	68 69 73 20 	AND.NZ     $95008,SP
    b6d8:	61 20 73 69 	XOR.V      $29545,R12
    b6dc:	6d 75 6c 61 	SH.GE      SP,$-5023(R5)
    b6e0:	74 6f 72 3f 	TST.NZ     $-3521+SP,CC
    b6e4:	0d 0a 00 00 	LH.Z       ($-131072),R1
    b6e8:	4e 6f 74 20 	LDI        $-1084384,R9
    b6ec:	73 75 70 70 	MOV.GE     $-3984+uR5,uCC
    b6f0:	6f 72 74 65 	ILL 6f727465
    b6f4:	64 0d 0a 00 	CMP.Z      $2560+R4,R12
    b6f8:	53 75 70 70 	MOV.GE     $-3984+uR5,uR10
    b6fc:	6f 72 74 65 	ILL 6f727465
    b700:	64 0d 0a 00 	CMP.Z      $2560+R4,R12
    b704:	4e 6f 20 64 	LDI        $-1105820,R9
    b708:	69 76 69 64 	LSR.GE     $-5788+R9,SP
    b70c:	65 20 75 6e 	LH.V       ($30062),R12
    b710:	69 74 20 69 	LSR.GE     $-8087+R0,SP
    b714:	6e 73 74 61 	LDI        $-822175,SP
    b718:	6c 6c 65 64 	TST.NZ     $-6812+R1,SP
    b71c:	0d 0a 00 00 	LH.Z       ($-131072),R1
    b720:	41 6c 6c 20 	LSR.NZ     $-5088+R1,R8
    b724:	74 65 73 74 	TST.V      $-3212+R5,CC
    b728:	73 20 70 61 	MPY.V      $28769,CC
    b72c:	73 73 65 64 	MOV.GE     $1380+uSP,CC
    b730:	2e 20 20 48 	LDI        $2105416,R5
    b734:	61 6c 74 69 	LSR.NZ     $-2967+R1,R12
    b738:	6e 67 20 43 	LDI        $-1630141,SP
    b73c:	50 55 2e 0d 	AND.LT     $-4595+R4,R10
    b740:	0a 00 00 00 	CLR        $0,R1

0000b744 <testlist>:
	...

Disassembly of section .comment:

00000000 <.comment>:
   0:	47 43 43 3a 	ILL 4743433a
   4:	20 28 7a 69 	SUB.NZ     $31337,R4
   8:	70 2d 67 63 	SUB.NZ     $-6301+R5,CC
   c:	63 2d 31 37 	MPY.NZ     $-3785+R4,R12
  10:	30 33 30 39 	SUB.GE     $-53191,R6
  14:	29 20 36 2e 	XOR.V      $13870,R5
  18:	32 2e 30 00 	BREV.NZ    $-4096+R8,R6
